
a.out:     file format elf64-x86-64


Disassembly of section .init:

0000000000002000 <_init>:
    2000:	f3 0f 1e fa          	endbr64 
    2004:	48 83 ec 08          	sub    $0x8,%rsp
    2008:	48 8b 05 d9 7f 00 00 	mov    0x7fd9(%rip),%rax        # 9fe8 <__gmon_start__>
    200f:	48 85 c0             	test   %rax,%rax
    2012:	74 02                	je     2016 <_init+0x16>
    2014:	ff d0                	callq  *%rax
    2016:	48 83 c4 08          	add    $0x8,%rsp
    201a:	c3                   	retq   

Disassembly of section .plt:

0000000000002020 <.plt>:
    2020:	ff 35 32 7e 00 00    	pushq  0x7e32(%rip)        # 9e58 <_GLOBAL_OFFSET_TABLE_+0x8>
    2026:	f2 ff 25 33 7e 00 00 	bnd jmpq *0x7e33(%rip)        # 9e60 <_GLOBAL_OFFSET_TABLE_+0x10>
    202d:	0f 1f 00             	nopl   (%rax)
    2030:	f3 0f 1e fa          	endbr64 
    2034:	68 00 00 00 00       	pushq  $0x0
    2039:	f2 e9 e1 ff ff ff    	bnd jmpq 2020 <.plt>
    203f:	90                   	nop
    2040:	f3 0f 1e fa          	endbr64 
    2044:	68 01 00 00 00       	pushq  $0x1
    2049:	f2 e9 d1 ff ff ff    	bnd jmpq 2020 <.plt>
    204f:	90                   	nop
    2050:	f3 0f 1e fa          	endbr64 
    2054:	68 02 00 00 00       	pushq  $0x2
    2059:	f2 e9 c1 ff ff ff    	bnd jmpq 2020 <.plt>
    205f:	90                   	nop
    2060:	f3 0f 1e fa          	endbr64 
    2064:	68 03 00 00 00       	pushq  $0x3
    2069:	f2 e9 b1 ff ff ff    	bnd jmpq 2020 <.plt>
    206f:	90                   	nop
    2070:	f3 0f 1e fa          	endbr64 
    2074:	68 04 00 00 00       	pushq  $0x4
    2079:	f2 e9 a1 ff ff ff    	bnd jmpq 2020 <.plt>
    207f:	90                   	nop
    2080:	f3 0f 1e fa          	endbr64 
    2084:	68 05 00 00 00       	pushq  $0x5
    2089:	f2 e9 91 ff ff ff    	bnd jmpq 2020 <.plt>
    208f:	90                   	nop
    2090:	f3 0f 1e fa          	endbr64 
    2094:	68 06 00 00 00       	pushq  $0x6
    2099:	f2 e9 81 ff ff ff    	bnd jmpq 2020 <.plt>
    209f:	90                   	nop
    20a0:	f3 0f 1e fa          	endbr64 
    20a4:	68 07 00 00 00       	pushq  $0x7
    20a9:	f2 e9 71 ff ff ff    	bnd jmpq 2020 <.plt>
    20af:	90                   	nop
    20b0:	f3 0f 1e fa          	endbr64 
    20b4:	68 08 00 00 00       	pushq  $0x8
    20b9:	f2 e9 61 ff ff ff    	bnd jmpq 2020 <.plt>
    20bf:	90                   	nop
    20c0:	f3 0f 1e fa          	endbr64 
    20c4:	68 09 00 00 00       	pushq  $0x9
    20c9:	f2 e9 51 ff ff ff    	bnd jmpq 2020 <.plt>
    20cf:	90                   	nop
    20d0:	f3 0f 1e fa          	endbr64 
    20d4:	68 0a 00 00 00       	pushq  $0xa
    20d9:	f2 e9 41 ff ff ff    	bnd jmpq 2020 <.plt>
    20df:	90                   	nop
    20e0:	f3 0f 1e fa          	endbr64 
    20e4:	68 0b 00 00 00       	pushq  $0xb
    20e9:	f2 e9 31 ff ff ff    	bnd jmpq 2020 <.plt>
    20ef:	90                   	nop
    20f0:	f3 0f 1e fa          	endbr64 
    20f4:	68 0c 00 00 00       	pushq  $0xc
    20f9:	f2 e9 21 ff ff ff    	bnd jmpq 2020 <.plt>
    20ff:	90                   	nop
    2100:	f3 0f 1e fa          	endbr64 
    2104:	68 0d 00 00 00       	pushq  $0xd
    2109:	f2 e9 11 ff ff ff    	bnd jmpq 2020 <.plt>
    210f:	90                   	nop
    2110:	f3 0f 1e fa          	endbr64 
    2114:	68 0e 00 00 00       	pushq  $0xe
    2119:	f2 e9 01 ff ff ff    	bnd jmpq 2020 <.plt>
    211f:	90                   	nop
    2120:	f3 0f 1e fa          	endbr64 
    2124:	68 0f 00 00 00       	pushq  $0xf
    2129:	f2 e9 f1 fe ff ff    	bnd jmpq 2020 <.plt>
    212f:	90                   	nop
    2130:	f3 0f 1e fa          	endbr64 
    2134:	68 10 00 00 00       	pushq  $0x10
    2139:	f2 e9 e1 fe ff ff    	bnd jmpq 2020 <.plt>
    213f:	90                   	nop
    2140:	f3 0f 1e fa          	endbr64 
    2144:	68 11 00 00 00       	pushq  $0x11
    2149:	f2 e9 d1 fe ff ff    	bnd jmpq 2020 <.plt>
    214f:	90                   	nop
    2150:	f3 0f 1e fa          	endbr64 
    2154:	68 12 00 00 00       	pushq  $0x12
    2159:	f2 e9 c1 fe ff ff    	bnd jmpq 2020 <.plt>
    215f:	90                   	nop
    2160:	f3 0f 1e fa          	endbr64 
    2164:	68 13 00 00 00       	pushq  $0x13
    2169:	f2 e9 b1 fe ff ff    	bnd jmpq 2020 <.plt>
    216f:	90                   	nop
    2170:	f3 0f 1e fa          	endbr64 
    2174:	68 14 00 00 00       	pushq  $0x14
    2179:	f2 e9 a1 fe ff ff    	bnd jmpq 2020 <.plt>
    217f:	90                   	nop
    2180:	f3 0f 1e fa          	endbr64 
    2184:	68 15 00 00 00       	pushq  $0x15
    2189:	f2 e9 91 fe ff ff    	bnd jmpq 2020 <.plt>
    218f:	90                   	nop
    2190:	f3 0f 1e fa          	endbr64 
    2194:	68 16 00 00 00       	pushq  $0x16
    2199:	f2 e9 81 fe ff ff    	bnd jmpq 2020 <.plt>
    219f:	90                   	nop
    21a0:	f3 0f 1e fa          	endbr64 
    21a4:	68 17 00 00 00       	pushq  $0x17
    21a9:	f2 e9 71 fe ff ff    	bnd jmpq 2020 <.plt>
    21af:	90                   	nop
    21b0:	f3 0f 1e fa          	endbr64 
    21b4:	68 18 00 00 00       	pushq  $0x18
    21b9:	f2 e9 61 fe ff ff    	bnd jmpq 2020 <.plt>
    21bf:	90                   	nop
    21c0:	f3 0f 1e fa          	endbr64 
    21c4:	68 19 00 00 00       	pushq  $0x19
    21c9:	f2 e9 51 fe ff ff    	bnd jmpq 2020 <.plt>
    21cf:	90                   	nop
    21d0:	f3 0f 1e fa          	endbr64 
    21d4:	68 1a 00 00 00       	pushq  $0x1a
    21d9:	f2 e9 41 fe ff ff    	bnd jmpq 2020 <.plt>
    21df:	90                   	nop
    21e0:	f3 0f 1e fa          	endbr64 
    21e4:	68 1b 00 00 00       	pushq  $0x1b
    21e9:	f2 e9 31 fe ff ff    	bnd jmpq 2020 <.plt>
    21ef:	90                   	nop
    21f0:	f3 0f 1e fa          	endbr64 
    21f4:	68 1c 00 00 00       	pushq  $0x1c
    21f9:	f2 e9 21 fe ff ff    	bnd jmpq 2020 <.plt>
    21ff:	90                   	nop
    2200:	f3 0f 1e fa          	endbr64 
    2204:	68 1d 00 00 00       	pushq  $0x1d
    2209:	f2 e9 11 fe ff ff    	bnd jmpq 2020 <.plt>
    220f:	90                   	nop
    2210:	f3 0f 1e fa          	endbr64 
    2214:	68 1e 00 00 00       	pushq  $0x1e
    2219:	f2 e9 01 fe ff ff    	bnd jmpq 2020 <.plt>
    221f:	90                   	nop
    2220:	f3 0f 1e fa          	endbr64 
    2224:	68 1f 00 00 00       	pushq  $0x1f
    2229:	f2 e9 f1 fd ff ff    	bnd jmpq 2020 <.plt>
    222f:	90                   	nop
    2230:	f3 0f 1e fa          	endbr64 
    2234:	68 20 00 00 00       	pushq  $0x20
    2239:	f2 e9 e1 fd ff ff    	bnd jmpq 2020 <.plt>
    223f:	90                   	nop
    2240:	f3 0f 1e fa          	endbr64 
    2244:	68 21 00 00 00       	pushq  $0x21
    2249:	f2 e9 d1 fd ff ff    	bnd jmpq 2020 <.plt>
    224f:	90                   	nop
    2250:	f3 0f 1e fa          	endbr64 
    2254:	68 22 00 00 00       	pushq  $0x22
    2259:	f2 e9 c1 fd ff ff    	bnd jmpq 2020 <.plt>
    225f:	90                   	nop
    2260:	f3 0f 1e fa          	endbr64 
    2264:	68 23 00 00 00       	pushq  $0x23
    2269:	f2 e9 b1 fd ff ff    	bnd jmpq 2020 <.plt>
    226f:	90                   	nop
    2270:	f3 0f 1e fa          	endbr64 
    2274:	68 24 00 00 00       	pushq  $0x24
    2279:	f2 e9 a1 fd ff ff    	bnd jmpq 2020 <.plt>
    227f:	90                   	nop
    2280:	f3 0f 1e fa          	endbr64 
    2284:	68 25 00 00 00       	pushq  $0x25
    2289:	f2 e9 91 fd ff ff    	bnd jmpq 2020 <.plt>
    228f:	90                   	nop
    2290:	f3 0f 1e fa          	endbr64 
    2294:	68 26 00 00 00       	pushq  $0x26
    2299:	f2 e9 81 fd ff ff    	bnd jmpq 2020 <.plt>
    229f:	90                   	nop
    22a0:	f3 0f 1e fa          	endbr64 
    22a4:	68 27 00 00 00       	pushq  $0x27
    22a9:	f2 e9 71 fd ff ff    	bnd jmpq 2020 <.plt>
    22af:	90                   	nop
    22b0:	f3 0f 1e fa          	endbr64 
    22b4:	68 28 00 00 00       	pushq  $0x28
    22b9:	f2 e9 61 fd ff ff    	bnd jmpq 2020 <.plt>
    22bf:	90                   	nop
    22c0:	f3 0f 1e fa          	endbr64 
    22c4:	68 29 00 00 00       	pushq  $0x29
    22c9:	f2 e9 51 fd ff ff    	bnd jmpq 2020 <.plt>
    22cf:	90                   	nop
    22d0:	f3 0f 1e fa          	endbr64 
    22d4:	68 2a 00 00 00       	pushq  $0x2a
    22d9:	f2 e9 41 fd ff ff    	bnd jmpq 2020 <.plt>
    22df:	90                   	nop
    22e0:	f3 0f 1e fa          	endbr64 
    22e4:	68 2b 00 00 00       	pushq  $0x2b
    22e9:	f2 e9 31 fd ff ff    	bnd jmpq 2020 <.plt>
    22ef:	90                   	nop

Disassembly of section .plt.got:

00000000000022f0 <__cxa_finalize@plt>:
    22f0:	f3 0f 1e fa          	endbr64 
    22f4:	f2 ff 25 cd 7c 00 00 	bnd jmpq *0x7ccd(%rip)        # 9fc8 <__cxa_finalize@GLIBC_2.2.5>
    22fb:	0f 1f 44 00 00       	nopl   0x0(%rax,%rax,1)

Disassembly of section .plt.sec:

0000000000002300 <_ZNSt6chrono3_V212system_clock3nowEv@plt>:
    2300:	f3 0f 1e fa          	endbr64 
    2304:	f2 ff 25 5d 7b 00 00 	bnd jmpq *0x7b5d(%rip)        # 9e68 <_ZNSt6chrono3_V212system_clock3nowEv@GLIBCXX_3.4.19>
    230b:	0f 1f 44 00 00       	nopl   0x0(%rax,%rax,1)

0000000000002310 <_ZNSirsERj@plt>:
    2310:	f3 0f 1e fa          	endbr64 
    2314:	f2 ff 25 55 7b 00 00 	bnd jmpq *0x7b55(%rip)        # 9e70 <_ZNSirsERj@GLIBCXX_3.4>
    231b:	0f 1f 44 00 00       	nopl   0x0(%rax,%rax,1)

0000000000002320 <_ZNSaIcED2Ev@plt>:
    2320:	f3 0f 1e fa          	endbr64 
    2324:	f2 ff 25 4d 7b 00 00 	bnd jmpq *0x7b4d(%rip)        # 9e78 <_ZNSaIcED2Ev@GLIBCXX_3.4>
    232b:	0f 1f 44 00 00       	nopl   0x0(%rax,%rax,1)

0000000000002330 <_ZSt7getlineIcSt11char_traitsIcESaIcEERSt13basic_istreamIT_T0_ES7_RNSt7__cxx1112basic_stringIS4_S5_T1_EE@plt>:
    2330:	f3 0f 1e fa          	endbr64 
    2334:	f2 ff 25 45 7b 00 00 	bnd jmpq *0x7b45(%rip)        # 9e80 <_ZSt7getlineIcSt11char_traitsIcESaIcEERSt13basic_istreamIT_T0_ES7_RNSt7__cxx1112basic_stringIS4_S5_T1_EE@GLIBCXX_3.4.21>
    233b:	0f 1f 44 00 00       	nopl   0x0(%rax,%rax,1)

0000000000002340 <_ZNSolsEm@plt>:
    2340:	f3 0f 1e fa          	endbr64 
    2344:	f2 ff 25 3d 7b 00 00 	bnd jmpq *0x7b3d(%rip)        # 9e88 <_ZNSolsEm@GLIBCXX_3.4>
    234b:	0f 1f 44 00 00       	nopl   0x0(%rax,%rax,1)

0000000000002350 <_ZNSt14basic_ifstreamIcSt11char_traitsIcEED1Ev@plt>:
    2350:	f3 0f 1e fa          	endbr64 
    2354:	f2 ff 25 35 7b 00 00 	bnd jmpq *0x7b35(%rip)        # 9e90 <_ZNSt14basic_ifstreamIcSt11char_traitsIcEED1Ev@GLIBCXX_3.4>
    235b:	0f 1f 44 00 00       	nopl   0x0(%rax,%rax,1)

0000000000002360 <_ZSt17__throw_bad_allocv@plt>:
    2360:	f3 0f 1e fa          	endbr64 
    2364:	f2 ff 25 2d 7b 00 00 	bnd jmpq *0x7b2d(%rip)        # 9e98 <_ZSt17__throw_bad_allocv@GLIBCXX_3.4>
    236b:	0f 1f 44 00 00       	nopl   0x0(%rax,%rax,1)

0000000000002370 <__cxa_begin_catch@plt>:
    2370:	f3 0f 1e fa          	endbr64 
    2374:	f2 ff 25 25 7b 00 00 	bnd jmpq *0x7b25(%rip)        # 9ea0 <__cxa_begin_catch@CXXABI_1.3>
    237b:	0f 1f 44 00 00       	nopl   0x0(%rax,%rax,1)

0000000000002380 <strlen@plt>:
    2380:	f3 0f 1e fa          	endbr64 
    2384:	f2 ff 25 1d 7b 00 00 	bnd jmpq *0x7b1d(%rip)        # 9ea8 <strlen@GLIBC_2.2.5>
    238b:	0f 1f 44 00 00       	nopl   0x0(%rax,%rax,1)

0000000000002390 <_ZNKSt9basic_iosIcSt11char_traitsIcEEntEv@plt>:
    2390:	f3 0f 1e fa          	endbr64 
    2394:	f2 ff 25 15 7b 00 00 	bnd jmpq *0x7b15(%rip)        # 9eb0 <_ZNKSt9basic_iosIcSt11char_traitsIcEEntEv@GLIBCXX_3.4>
    239b:	0f 1f 44 00 00       	nopl   0x0(%rax,%rax,1)

00000000000023a0 <_ZSt20__throw_length_errorPKc@plt>:
    23a0:	f3 0f 1e fa          	endbr64 
    23a4:	f2 ff 25 0d 7b 00 00 	bnd jmpq *0x7b0d(%rip)        # 9eb8 <_ZSt20__throw_length_errorPKc@GLIBCXX_3.4>
    23ab:	0f 1f 44 00 00       	nopl   0x0(%rax,%rax,1)

00000000000023b0 <_ZNSt7__cxx1112basic_stringIcSt11char_traitsIcESaIcEED1Ev@plt>:
    23b0:	f3 0f 1e fa          	endbr64 
    23b4:	f2 ff 25 05 7b 00 00 	bnd jmpq *0x7b05(%rip)        # 9ec0 <_ZNSt7__cxx1112basic_stringIcSt11char_traitsIcESaIcEED1Ev@GLIBCXX_3.4.21>
    23bb:	0f 1f 44 00 00       	nopl   0x0(%rax,%rax,1)

00000000000023c0 <_ZNSt7__cxx1112basic_stringIcSt11char_traitsIcESaIcEE13_M_set_lengthEm@plt>:
    23c0:	f3 0f 1e fa          	endbr64 
    23c4:	f2 ff 25 fd 7a 00 00 	bnd jmpq *0x7afd(%rip)        # 9ec8 <_ZNSt7__cxx1112basic_stringIcSt11char_traitsIcESaIcEE13_M_set_lengthEm@GLIBCXX_3.4.21>
    23cb:	0f 1f 44 00 00       	nopl   0x0(%rax,%rax,1)

00000000000023d0 <_ZSt19__throw_logic_errorPKc@plt>:
    23d0:	f3 0f 1e fa          	endbr64 
    23d4:	f2 ff 25 f5 7a 00 00 	bnd jmpq *0x7af5(%rip)        # 9ed0 <_ZSt19__throw_logic_errorPKc@GLIBCXX_3.4>
    23db:	0f 1f 44 00 00       	nopl   0x0(%rax,%rax,1)

00000000000023e0 <_ZNSt7__cxx1118basic_stringstreamIcSt11char_traitsIcESaIcEED1Ev@plt>:
    23e0:	f3 0f 1e fa          	endbr64 
    23e4:	f2 ff 25 ed 7a 00 00 	bnd jmpq *0x7aed(%rip)        # 9ed8 <_ZNSt7__cxx1118basic_stringstreamIcSt11char_traitsIcESaIcEED1Ev@GLIBCXX_3.4.21>
    23eb:	0f 1f 44 00 00       	nopl   0x0(%rax,%rax,1)

00000000000023f0 <_ZSt28__throw_bad_array_new_lengthv@plt>:
    23f0:	f3 0f 1e fa          	endbr64 
    23f4:	f2 ff 25 e5 7a 00 00 	bnd jmpq *0x7ae5(%rip)        # 9ee0 <_ZSt28__throw_bad_array_new_lengthv@GLIBCXX_3.4.29>
    23fb:	0f 1f 44 00 00       	nopl   0x0(%rax,%rax,1)

0000000000002400 <_ZNSt7__cxx1112basic_stringIcSt11char_traitsIcESaIcEE13_M_local_dataEv@plt>:
    2400:	f3 0f 1e fa          	endbr64 
    2404:	f2 ff 25 dd 7a 00 00 	bnd jmpq *0x7add(%rip)        # 9ee8 <_ZNSt7__cxx1112basic_stringIcSt11char_traitsIcESaIcEE13_M_local_dataEv@GLIBCXX_3.4.21>
    240b:	0f 1f 44 00 00       	nopl   0x0(%rax,%rax,1)

0000000000002410 <_ZNSt7__cxx1112basic_stringIcSt11char_traitsIcESaIcEE7_M_dataEPc@plt>:
    2410:	f3 0f 1e fa          	endbr64 
    2414:	f2 ff 25 d5 7a 00 00 	bnd jmpq *0x7ad5(%rip)        # 9ef0 <_ZNSt7__cxx1112basic_stringIcSt11char_traitsIcESaIcEE7_M_dataEPc@GLIBCXX_3.4.21>
    241b:	0f 1f 44 00 00       	nopl   0x0(%rax,%rax,1)

0000000000002420 <__cxa_atexit@plt>:
    2420:	f3 0f 1e fa          	endbr64 
    2424:	f2 ff 25 cd 7a 00 00 	bnd jmpq *0x7acd(%rip)        # 9ef8 <__cxa_atexit@GLIBC_2.2.5>
    242b:	0f 1f 44 00 00       	nopl   0x0(%rax,%rax,1)

0000000000002430 <_ZStlsIcSt11char_traitsIcESaIcEERSt13basic_ostreamIT_T0_ES7_RKNSt7__cxx1112basic_stringIS4_S5_T1_EE@plt>:
    2430:	f3 0f 1e fa          	endbr64 
    2434:	f2 ff 25 c5 7a 00 00 	bnd jmpq *0x7ac5(%rip)        # 9f00 <_ZStlsIcSt11char_traitsIcESaIcEERSt13basic_ostreamIT_T0_ES7_RKNSt7__cxx1112basic_stringIS4_S5_T1_EE@GLIBCXX_3.4.21>
    243b:	0f 1f 44 00 00       	nopl   0x0(%rax,%rax,1)

0000000000002440 <_ZStlsISt11char_traitsIcEERSt13basic_ostreamIcT_ES5_PKc@plt>:
    2440:	f3 0f 1e fa          	endbr64 
    2444:	f2 ff 25 bd 7a 00 00 	bnd jmpq *0x7abd(%rip)        # 9f08 <_ZStlsISt11char_traitsIcEERSt13basic_ostreamIcT_ES5_PKc@GLIBCXX_3.4>
    244b:	0f 1f 44 00 00       	nopl   0x0(%rax,%rax,1)

0000000000002450 <_Znwm@plt>:
    2450:	f3 0f 1e fa          	endbr64 
    2454:	f2 ff 25 b5 7a 00 00 	bnd jmpq *0x7ab5(%rip)        # 9f10 <_Znwm@GLIBCXX_3.4>
    245b:	0f 1f 44 00 00       	nopl   0x0(%rax,%rax,1)

0000000000002460 <_ZdlPvm@plt>:
    2460:	f3 0f 1e fa          	endbr64 
    2464:	f2 ff 25 ad 7a 00 00 	bnd jmpq *0x7aad(%rip)        # 9f18 <_ZdlPvm@CXXABI_1.3.9>
    246b:	0f 1f 44 00 00       	nopl   0x0(%rax,%rax,1)

0000000000002470 <_ZNSolsEPFRSoS_E@plt>:
    2470:	f3 0f 1e fa          	endbr64 
    2474:	f2 ff 25 a5 7a 00 00 	bnd jmpq *0x7aa5(%rip)        # 9f20 <_ZNSolsEPFRSoS_E@GLIBCXX_3.4>
    247b:	0f 1f 44 00 00       	nopl   0x0(%rax,%rax,1)

0000000000002480 <_ZNSt7__cxx1112basic_stringIcSt11char_traitsIcESaIcEE12_Alloc_hiderC1EPcRKS3_@plt>:
    2480:	f3 0f 1e fa          	endbr64 
    2484:	f2 ff 25 9d 7a 00 00 	bnd jmpq *0x7a9d(%rip)        # 9f28 <_ZNSt7__cxx1112basic_stringIcSt11char_traitsIcESaIcEE12_Alloc_hiderC1EPcRKS3_@GLIBCXX_3.4.21>
    248b:	0f 1f 44 00 00       	nopl   0x0(%rax,%rax,1)

0000000000002490 <_ZNSaIcED1Ev@plt>:
    2490:	f3 0f 1e fa          	endbr64 
    2494:	f2 ff 25 95 7a 00 00 	bnd jmpq *0x7a95(%rip)        # 9f30 <_ZNSaIcED1Ev@GLIBCXX_3.4>
    249b:	0f 1f 44 00 00       	nopl   0x0(%rax,%rax,1)

00000000000024a0 <_ZNKSt7__cxx1112basic_stringIcSt11char_traitsIcESaIcEE7_M_dataEv@plt>:
    24a0:	f3 0f 1e fa          	endbr64 
    24a4:	f2 ff 25 8d 7a 00 00 	bnd jmpq *0x7a8d(%rip)        # 9f38 <_ZNKSt7__cxx1112basic_stringIcSt11char_traitsIcESaIcEE7_M_dataEv@GLIBCXX_3.4.21>
    24ab:	0f 1f 44 00 00       	nopl   0x0(%rax,%rax,1)

00000000000024b0 <_ZNSt7__cxx1112basic_stringIcSt11char_traitsIcESaIcEE13_S_copy_charsEPcPKcS7_@plt>:
    24b0:	f3 0f 1e fa          	endbr64 
    24b4:	f2 ff 25 85 7a 00 00 	bnd jmpq *0x7a85(%rip)        # 9f40 <_ZNSt7__cxx1112basic_stringIcSt11char_traitsIcESaIcEE13_S_copy_charsEPcPKcS7_@GLIBCXX_3.4.21>
    24bb:	0f 1f 44 00 00       	nopl   0x0(%rax,%rax,1)

00000000000024c0 <__stack_chk_fail@plt>:
    24c0:	f3 0f 1e fa          	endbr64 
    24c4:	f2 ff 25 7d 7a 00 00 	bnd jmpq *0x7a7d(%rip)        # 9f48 <__stack_chk_fail@GLIBC_2.4>
    24cb:	0f 1f 44 00 00       	nopl   0x0(%rax,%rax,1)

00000000000024d0 <_ZNSt7__cxx1112basic_stringIcSt11char_traitsIcESaIcEE10_M_disposeEv@plt>:
    24d0:	f3 0f 1e fa          	endbr64 
    24d4:	f2 ff 25 75 7a 00 00 	bnd jmpq *0x7a75(%rip)        # 9f50 <_ZNSt7__cxx1112basic_stringIcSt11char_traitsIcESaIcEE10_M_disposeEv@GLIBCXX_3.4.21>
    24db:	0f 1f 44 00 00       	nopl   0x0(%rax,%rax,1)

00000000000024e0 <_ZNKSt9basic_iosIcSt11char_traitsIcEEcvbEv@plt>:
    24e0:	f3 0f 1e fa          	endbr64 
    24e4:	f2 ff 25 6d 7a 00 00 	bnd jmpq *0x7a6d(%rip)        # 9f58 <_ZNKSt9basic_iosIcSt11char_traitsIcEEcvbEv@GLIBCXX_3.4.21>
    24eb:	0f 1f 44 00 00       	nopl   0x0(%rax,%rax,1)

00000000000024f0 <_ZNSt7__cxx1112basic_stringIcSt11char_traitsIcESaIcEEC1Ev@plt>:
    24f0:	f3 0f 1e fa          	endbr64 
    24f4:	f2 ff 25 65 7a 00 00 	bnd jmpq *0x7a65(%rip)        # 9f60 <_ZNSt7__cxx1112basic_stringIcSt11char_traitsIcESaIcEEC1Ev@GLIBCXX_3.4.21>
    24fb:	0f 1f 44 00 00       	nopl   0x0(%rax,%rax,1)

0000000000002500 <__cxa_rethrow@plt>:
    2500:	f3 0f 1e fa          	endbr64 
    2504:	f2 ff 25 5d 7a 00 00 	bnd jmpq *0x7a5d(%rip)        # 9f68 <__cxa_rethrow@CXXABI_1.3>
    250b:	0f 1f 44 00 00       	nopl   0x0(%rax,%rax,1)

0000000000002510 <_ZNSt8ios_base4InitC1Ev@plt>:
    2510:	f3 0f 1e fa          	endbr64 
    2514:	f2 ff 25 55 7a 00 00 	bnd jmpq *0x7a55(%rip)        # 9f70 <_ZNSt8ios_base4InitC1Ev@GLIBCXX_3.4>
    251b:	0f 1f 44 00 00       	nopl   0x0(%rax,%rax,1)

0000000000002520 <_ZNSt7__cxx1118basic_stringstreamIcSt11char_traitsIcESaIcEEC1ERKNS_12basic_stringIcS2_S3_EESt13_Ios_Openmode@plt>:
    2520:	f3 0f 1e fa          	endbr64 
    2524:	f2 ff 25 4d 7a 00 00 	bnd jmpq *0x7a4d(%rip)        # 9f78 <_ZNSt7__cxx1118basic_stringstreamIcSt11char_traitsIcESaIcEEC1ERKNS_12basic_stringIcS2_S3_EESt13_Ios_Openmode@GLIBCXX_3.4.21>
    252b:	0f 1f 44 00 00       	nopl   0x0(%rax,%rax,1)

0000000000002530 <_ZNSt14basic_ifstreamIcSt11char_traitsIcEEC1ERKNSt7__cxx1112basic_stringIcS1_SaIcEEESt13_Ios_Openmode@plt>:
    2530:	f3 0f 1e fa          	endbr64 
    2534:	f2 ff 25 45 7a 00 00 	bnd jmpq *0x7a45(%rip)        # 9f80 <_ZNSt14basic_ifstreamIcSt11char_traitsIcEEC1ERKNSt7__cxx1112basic_stringIcS1_SaIcEEESt13_Ios_Openmode@GLIBCXX_3.4.21>
    253b:	0f 1f 44 00 00       	nopl   0x0(%rax,%rax,1)

0000000000002540 <memmove@plt>:
    2540:	f3 0f 1e fa          	endbr64 
    2544:	f2 ff 25 3d 7a 00 00 	bnd jmpq *0x7a3d(%rip)        # 9f88 <memmove@GLIBC_2.2.5>
    254b:	0f 1f 44 00 00       	nopl   0x0(%rax,%rax,1)

0000000000002550 <__cxa_end_catch@plt>:
    2550:	f3 0f 1e fa          	endbr64 
    2554:	f2 ff 25 35 7a 00 00 	bnd jmpq *0x7a35(%rip)        # 9f90 <__cxa_end_catch@CXXABI_1.3>
    255b:	0f 1f 44 00 00       	nopl   0x0(%rax,%rax,1)

0000000000002560 <_Unwind_Resume@plt>:
    2560:	f3 0f 1e fa          	endbr64 
    2564:	f2 ff 25 2d 7a 00 00 	bnd jmpq *0x7a2d(%rip)        # 9f98 <_Unwind_Resume@GCC_3.0>
    256b:	0f 1f 44 00 00       	nopl   0x0(%rax,%rax,1)

0000000000002570 <_ZNSaIcEC1Ev@plt>:
    2570:	f3 0f 1e fa          	endbr64 
    2574:	f2 ff 25 25 7a 00 00 	bnd jmpq *0x7a25(%rip)        # 9fa0 <_ZNSaIcEC1Ev@GLIBCXX_3.4>
    257b:	0f 1f 44 00 00       	nopl   0x0(%rax,%rax,1)

0000000000002580 <_ZNSt7__cxx1112basic_stringIcSt11char_traitsIcESaIcEE9_M_createERmm@plt>:
    2580:	f3 0f 1e fa          	endbr64 
    2584:	f2 ff 25 1d 7a 00 00 	bnd jmpq *0x7a1d(%rip)        # 9fa8 <_ZNSt7__cxx1112basic_stringIcSt11char_traitsIcESaIcEE9_M_createERmm@GLIBCXX_3.4.21>
    258b:	0f 1f 44 00 00       	nopl   0x0(%rax,%rax,1)

0000000000002590 <_ZNSolsEl@plt>:
    2590:	f3 0f 1e fa          	endbr64 
    2594:	f2 ff 25 15 7a 00 00 	bnd jmpq *0x7a15(%rip)        # 9fb0 <_ZNSolsEl@GLIBCXX_3.4>
    259b:	0f 1f 44 00 00       	nopl   0x0(%rax,%rax,1)

00000000000025a0 <_ZSt7getlineIcSt11char_traitsIcESaIcEERSt13basic_istreamIT_T0_ES7_RNSt7__cxx1112basic_stringIS4_S5_T1_EES4_@plt>:
    25a0:	f3 0f 1e fa          	endbr64 
    25a4:	f2 ff 25 0d 7a 00 00 	bnd jmpq *0x7a0d(%rip)        # 9fb8 <_ZSt7getlineIcSt11char_traitsIcESaIcEERSt13basic_istreamIT_T0_ES7_RNSt7__cxx1112basic_stringIS4_S5_T1_EES4_@GLIBCXX_3.4.21>
    25ab:	0f 1f 44 00 00       	nopl   0x0(%rax,%rax,1)

00000000000025b0 <_ZNSt7__cxx1112basic_stringIcSt11char_traitsIcESaIcEE11_M_capacityEm@plt>:
    25b0:	f3 0f 1e fa          	endbr64 
    25b4:	f2 ff 25 05 7a 00 00 	bnd jmpq *0x7a05(%rip)        # 9fc0 <_ZNSt7__cxx1112basic_stringIcSt11char_traitsIcESaIcEE11_M_capacityEm@GLIBCXX_3.4.21>
    25bb:	0f 1f 44 00 00       	nopl   0x0(%rax,%rax,1)

Disassembly of section .text:

00000000000025c0 <_start>:
    25c0:	f3 0f 1e fa          	endbr64 
    25c4:	31 ed                	xor    %ebp,%ebp
    25c6:	49 89 d1             	mov    %rdx,%r9
    25c9:	5e                   	pop    %rsi
    25ca:	48 89 e2             	mov    %rsp,%rdx
    25cd:	48 83 e4 f0          	and    $0xfffffffffffffff0,%rsp
    25d1:	50                   	push   %rax
    25d2:	54                   	push   %rsp
    25d3:	4c 8d 05 76 38 00 00 	lea    0x3876(%rip),%r8        # 5e50 <__libc_csu_fini>
    25da:	48 8d 0d ff 37 00 00 	lea    0x37ff(%rip),%rcx        # 5de0 <__libc_csu_init>
    25e1:	48 8d 3d 14 01 00 00 	lea    0x114(%rip),%rdi        # 26fc <main>
    25e8:	ff 15 f2 79 00 00    	callq  *0x79f2(%rip)        # 9fe0 <__libc_start_main@GLIBC_2.2.5>
    25ee:	f4                   	hlt    
    25ef:	90                   	nop

00000000000025f0 <deregister_tm_clones>:
    25f0:	48 8d 3d 21 7a 00 00 	lea    0x7a21(%rip),%rdi        # a018 <__TMC_END__>
    25f7:	48 8d 05 1a 7a 00 00 	lea    0x7a1a(%rip),%rax        # a018 <__TMC_END__>
    25fe:	48 39 f8             	cmp    %rdi,%rax
    2601:	74 15                	je     2618 <deregister_tm_clones+0x28>
    2603:	48 8b 05 ce 79 00 00 	mov    0x79ce(%rip),%rax        # 9fd8 <_ITM_deregisterTMCloneTable>
    260a:	48 85 c0             	test   %rax,%rax
    260d:	74 09                	je     2618 <deregister_tm_clones+0x28>
    260f:	ff e0                	jmpq   *%rax
    2611:	0f 1f 80 00 00 00 00 	nopl   0x0(%rax)
    2618:	c3                   	retq   
    2619:	0f 1f 80 00 00 00 00 	nopl   0x0(%rax)

0000000000002620 <register_tm_clones>:
    2620:	48 8d 3d f1 79 00 00 	lea    0x79f1(%rip),%rdi        # a018 <__TMC_END__>
    2627:	48 8d 35 ea 79 00 00 	lea    0x79ea(%rip),%rsi        # a018 <__TMC_END__>
    262e:	48 29 fe             	sub    %rdi,%rsi
    2631:	48 89 f0             	mov    %rsi,%rax
    2634:	48 c1 ee 3f          	shr    $0x3f,%rsi
    2638:	48 c1 f8 03          	sar    $0x3,%rax
    263c:	48 01 c6             	add    %rax,%rsi
    263f:	48 d1 fe             	sar    %rsi
    2642:	74 14                	je     2658 <register_tm_clones+0x38>
    2644:	48 8b 05 a5 79 00 00 	mov    0x79a5(%rip),%rax        # 9ff0 <_ITM_registerTMCloneTable>
    264b:	48 85 c0             	test   %rax,%rax
    264e:	74 08                	je     2658 <register_tm_clones+0x38>
    2650:	ff e0                	jmpq   *%rax
    2652:	66 0f 1f 44 00 00    	nopw   0x0(%rax,%rax,1)
    2658:	c3                   	retq   
    2659:	0f 1f 80 00 00 00 00 	nopl   0x0(%rax)

0000000000002660 <__do_global_dtors_aux>:
    2660:	f3 0f 1e fa          	endbr64 
    2664:	80 3d e5 7a 00 00 00 	cmpb   $0x0,0x7ae5(%rip)        # a150 <completed.0>
    266b:	75 2b                	jne    2698 <__do_global_dtors_aux+0x38>
    266d:	55                   	push   %rbp
    266e:	48 83 3d 52 79 00 00 	cmpq   $0x0,0x7952(%rip)        # 9fc8 <__cxa_finalize@GLIBC_2.2.5>
    2675:	00 
    2676:	48 89 e5             	mov    %rsp,%rbp
    2679:	74 0c                	je     2687 <__do_global_dtors_aux+0x27>
    267b:	48 8b 3d 86 79 00 00 	mov    0x7986(%rip),%rdi        # a008 <__dso_handle>
    2682:	e8 69 fc ff ff       	callq  22f0 <__cxa_finalize@plt>
    2687:	e8 64 ff ff ff       	callq  25f0 <deregister_tm_clones>
    268c:	c6 05 bd 7a 00 00 01 	movb   $0x1,0x7abd(%rip)        # a150 <completed.0>
    2693:	5d                   	pop    %rbp
    2694:	c3                   	retq   
    2695:	0f 1f 00             	nopl   (%rax)
    2698:	c3                   	retq   
    2699:	0f 1f 80 00 00 00 00 	nopl   0x0(%rax)

00000000000026a0 <frame_dummy>:
    26a0:	f3 0f 1e fa          	endbr64 
    26a4:	e9 77 ff ff ff       	jmpq   2620 <register_tm_clones>

00000000000026a9 <_Z10getline_asINSt7__cxx1112basic_stringIcSt11char_traitsIcESaIcEEEEiRSiRT_>:
    26a9:	f3 0f 1e fa          	endbr64 
    26ad:	55                   	push   %rbp
    26ae:	48 89 e5             	mov    %rsp,%rbp
    26b1:	48 83 ec 10          	sub    $0x10,%rsp
    26b5:	48 89 7d f8          	mov    %rdi,-0x8(%rbp)
    26b9:	48 89 75 f0          	mov    %rsi,-0x10(%rbp)
    26bd:	48 8b 4d f0          	mov    -0x10(%rbp),%rcx
    26c1:	48 8b 45 f8          	mov    -0x8(%rbp),%rax
    26c5:	ba 2c 00 00 00       	mov    $0x2c,%edx
    26ca:	48 89 ce             	mov    %rcx,%rsi
    26cd:	48 89 c7             	mov    %rax,%rdi
    26d0:	e8 cb fe ff ff       	callq  25a0 <_ZSt7getlineIcSt11char_traitsIcESaIcEERSt13basic_istreamIT_T0_ES7_RNSt7__cxx1112basic_stringIS4_S5_T1_EES4_@plt>
    26d5:	48 8b 10             	mov    (%rax),%rdx
    26d8:	48 83 ea 18          	sub    $0x18,%rdx
    26dc:	48 8b 12             	mov    (%rdx),%rdx
    26df:	48 01 d0             	add    %rdx,%rax
    26e2:	48 89 c7             	mov    %rax,%rdi
    26e5:	e8 f6 fd ff ff       	callq  24e0 <_ZNKSt9basic_iosIcSt11char_traitsIcEEcvbEv@plt>
    26ea:	84 c0                	test   %al,%al
    26ec:	74 07                	je     26f5 <_Z10getline_asINSt7__cxx1112basic_stringIcSt11char_traitsIcESaIcEEEEiRSiRT_+0x4c>
    26ee:	b8 01 00 00 00       	mov    $0x1,%eax
    26f3:	eb 05                	jmp    26fa <_Z10getline_asINSt7__cxx1112basic_stringIcSt11char_traitsIcESaIcEEEEiRSiRT_+0x51>
    26f5:	b8 00 00 00 00       	mov    $0x0,%eax
    26fa:	c9                   	leaveq 
    26fb:	c3                   	retq   

00000000000026fc <main>:
    26fc:	f3 0f 1e fa          	endbr64 
    2700:	55                   	push   %rbp
    2701:	48 89 e5             	mov    %rsp,%rbp
    2704:	53                   	push   %rbx
    2705:	48 81 ec f8 00 00 00 	sub    $0xf8,%rsp
    270c:	89 bd 0c ff ff ff    	mov    %edi,-0xf4(%rbp)
    2712:	48 89 b5 00 ff ff ff 	mov    %rsi,-0x100(%rbp)
    2719:	64 48 8b 04 25 28 00 	mov    %fs:0x28,%rax
    2720:	00 00 
    2722:	48 89 45 e8          	mov    %rax,-0x18(%rbp)
    2726:	31 c0                	xor    %eax,%eax
    2728:	48 8d 45 80          	lea    -0x80(%rbp),%rax
    272c:	48 89 c7             	mov    %rax,%rdi
    272f:	e8 be 0b 00 00       	callq  32f2 <_ZN9DataTableIjEC1Ev>
    2734:	c6 85 1b ff ff ff 00 	movb   $0x0,-0xe5(%rbp)
    273b:	c7 85 24 ff ff ff 00 	movl   $0x0,-0xdc(%rbp)
    2742:	00 00 00 
    2745:	e8 b6 fb ff ff       	callq  2300 <_ZNSt6chrono3_V212system_clock3nowEv@plt>
    274a:	48 89 85 30 ff ff ff 	mov    %rax,-0xd0(%rbp)
    2751:	48 8d 45 a0          	lea    -0x60(%rbp),%rax
    2755:	48 89 c7             	mov    %rax,%rdi
    2758:	e8 13 fe ff ff       	callq  2570 <_ZNSaIcEC1Ev@plt>
    275d:	48 8d 55 a0          	lea    -0x60(%rbp),%rdx
    2761:	48 8d 45 c0          	lea    -0x40(%rbp),%rax
    2765:	48 8d 0d a0 38 00 00 	lea    0x38a0(%rip),%rcx        # 600c <_ZN6__pstl9execution2v1L5unseqE+0x1>
    276c:	48 89 ce             	mov    %rcx,%rsi
    276f:	48 89 c7             	mov    %rax,%rdi
    2772:	e8 3f 09 00 00       	callq  30b6 <_ZNSt7__cxx1112basic_stringIcSt11char_traitsIcESaIcEEC1IS3_EEPKcRKS3_>
    2777:	48 8d 55 c0          	lea    -0x40(%rbp),%rdx
    277b:	48 8d 45 80          	lea    -0x80(%rbp),%rax
    277f:	48 89 d6             	mov    %rdx,%rsi
    2782:	48 89 c7             	mov    %rax,%rdi
    2785:	e8 dc 0b 00 00       	callq  3366 <_ZN9DataTableIjE7fromCSVERKNSt7__cxx1112basic_stringIcSt11char_traitsIcESaIcEEE>
    278a:	48 8d 45 c0          	lea    -0x40(%rbp),%rax
    278e:	48 89 c7             	mov    %rax,%rdi
    2791:	e8 1a fc ff ff       	callq  23b0 <_ZNSt7__cxx1112basic_stringIcSt11char_traitsIcESaIcEED1Ev@plt>
    2796:	48 8d 45 a0          	lea    -0x60(%rbp),%rax
    279a:	48 89 c7             	mov    %rax,%rdi
    279d:	e8 ee fc ff ff       	callq  2490 <_ZNSaIcED1Ev@plt>
    27a2:	e8 59 fb ff ff       	callq  2300 <_ZNSt6chrono3_V212system_clock3nowEv@plt>
    27a7:	48 89 85 38 ff ff ff 	mov    %rax,-0xc8(%rbp)
    27ae:	48 8d 05 68 38 00 00 	lea    0x3868(%rip),%rax        # 601d <_ZN6__pstl9execution2v1L5unseqE+0x12>
    27b5:	48 89 c6             	mov    %rax,%rsi
    27b8:	48 8d 05 81 78 00 00 	lea    0x7881(%rip),%rax        # a040 <_ZSt4cout@@GLIBCXX_3.4>
    27bf:	48 89 c7             	mov    %rax,%rdi
    27c2:	e8 79 fc ff ff       	callq  2440 <_ZStlsISt11char_traitsIcEERSt13basic_ostreamIcT_ES5_PKc@plt>
    27c7:	48 89 c3             	mov    %rax,%rbx
    27ca:	48 8d 95 30 ff ff ff 	lea    -0xd0(%rbp),%rdx
    27d1:	48 8d 85 38 ff ff ff 	lea    -0xc8(%rbp),%rax
    27d8:	48 89 d6             	mov    %rdx,%rsi
    27db:	48 89 c7             	mov    %rax,%rdi
    27de:	e8 0c 07 00 00       	callq  2eef <_ZNSt6chronomiINS_3_V212system_clockENS_8durationIlSt5ratioILl1ELl1000000000EEEES6_EENSt11common_typeIJT0_T1_EE4typeERKNS_10time_pointIT_S8_EERKNSC_ISD_S9_EE>
    27e3:	48 89 85 58 ff ff ff 	mov    %rax,-0xa8(%rbp)
    27ea:	48 8d 85 58 ff ff ff 	lea    -0xa8(%rbp),%rax
    27f1:	48 89 c7             	mov    %rax,%rdi
    27f4:	e8 d8 06 00 00       	callq  2ed1 <_ZNSt6chrono13duration_castINS_8durationIlSt5ratioILl1ELl1000EEEElS2_ILl1ELl1000000000EEEENSt9enable_ifIXsrNS_13__is_durationIT_EE5valueES8_E4typeERKNS1_IT0_T1_EE>
    27f9:	48 89 45 a0          	mov    %rax,-0x60(%rbp)
    27fd:	48 8d 45 a0          	lea    -0x60(%rbp),%rax
    2801:	48 89 c7             	mov    %rax,%rdi
    2804:	e8 b3 06 00 00       	callq  2ebc <_ZNKSt6chrono8durationIlSt5ratioILl1ELl1000EEE5countEv>
    2809:	48 89 c6             	mov    %rax,%rsi
    280c:	48 89 df             	mov    %rbx,%rdi
    280f:	e8 7c fd ff ff       	callq  2590 <_ZNSolsEl@plt>
    2814:	48 89 c2             	mov    %rax,%rdx
    2817:	48 8d 05 0a 38 00 00 	lea    0x380a(%rip),%rax        # 6028 <_ZN6__pstl9execution2v1L5unseqE+0x1d>
    281e:	48 89 c6             	mov    %rax,%rsi
    2821:	48 89 d7             	mov    %rdx,%rdi
    2824:	e8 17 fc ff ff       	callq  2440 <_ZStlsISt11char_traitsIcEERSt13basic_ostreamIcT_ES5_PKc@plt>
    2829:	e8 d2 fa ff ff       	callq  2300 <_ZNSt6chrono3_V212system_clock3nowEv@plt>
    282e:	48 89 85 30 ff ff ff 	mov    %rax,-0xd0(%rbp)
    2835:	c7 85 1c ff ff ff 00 	movl   $0x0,-0xe4(%rbp)
    283c:	00 00 00 
    283f:	e9 59 01 00 00       	jmpq   299d <main+0x2a1>
    2844:	48 8b 45 80          	mov    -0x80(%rbp),%rax
    2848:	48 89 85 70 ff ff ff 	mov    %rax,-0x90(%rbp)
    284f:	48 8b 85 70 ff ff ff 	mov    -0x90(%rbp),%rax
    2856:	48 89 c7             	mov    %rax,%rdi
    2859:	e8 10 0d 00 00       	callq  356e <_ZNSt6vectorIS_IjSaIjEESaIS1_EE5beginEv>
    285e:	48 89 85 40 ff ff ff 	mov    %rax,-0xc0(%rbp)
    2865:	48 8b 85 70 ff ff ff 	mov    -0x90(%rbp),%rax
    286c:	48 89 c7             	mov    %rax,%rdi
    286f:	e8 46 0d 00 00       	callq  35ba <_ZNSt6vectorIS_IjSaIjEESaIS1_EE3endEv>
    2874:	48 89 85 48 ff ff ff 	mov    %rax,-0xb8(%rbp)
    287b:	e9 f5 00 00 00       	jmpq   2975 <main+0x279>
    2880:	48 8d 85 40 ff ff ff 	lea    -0xc0(%rbp),%rax
    2887:	48 89 c7             	mov    %rax,%rdi
    288a:	e8 df 0d 00 00       	callq  366e <_ZNK9__gnu_cxx17__normal_iteratorIPSt6vectorIjSaIjEES1_IS3_SaIS3_EEEdeEv>
    288f:	48 89 c2             	mov    %rax,%rdx
    2892:	48 8d 45 a0          	lea    -0x60(%rbp),%rax
    2896:	48 89 d6             	mov    %rdx,%rsi
    2899:	48 89 c7             	mov    %rax,%rdi
    289c:	e8 e3 0d 00 00       	callq  3684 <_ZNSt6vectorIjSaIjEEC1ERKS1_>
    28a1:	48 8d 45 a0          	lea    -0x60(%rbp),%rax
    28a5:	48 89 85 78 ff ff ff 	mov    %rax,-0x88(%rbp)
    28ac:	48 8b 85 78 ff ff ff 	mov    -0x88(%rbp),%rax
    28b3:	48 89 c7             	mov    %rax,%rdi
    28b6:	e8 e9 0e 00 00       	callq  37a4 <_ZNSt6vectorIjSaIjEE5beginEv>
    28bb:	48 89 85 50 ff ff ff 	mov    %rax,-0xb0(%rbp)
    28c2:	48 8b 85 78 ff ff ff 	mov    -0x88(%rbp),%rax
    28c9:	48 89 c7             	mov    %rax,%rdi
    28cc:	e8 1f 0f 00 00       	callq  37f0 <_ZNSt6vectorIjSaIjEE3endEv>
    28d1:	48 89 85 58 ff ff ff 	mov    %rax,-0xa8(%rbp)
    28d8:	eb 63                	jmp    293d <main+0x241>
    28da:	48 8d 85 50 ff ff ff 	lea    -0xb0(%rbp),%rax
    28e1:	48 89 c7             	mov    %rax,%rdi
    28e4:	e8 bb 0f 00 00       	callq  38a4 <_ZNK9__gnu_cxx17__normal_iteratorIPjSt6vectorIjSaIjEEEdeEv>
    28e9:	8b 00                	mov    (%rax),%eax
    28eb:	89 85 2c ff ff ff    	mov    %eax,-0xd4(%rbp)
    28f1:	48 8d 05 60 78 00 00 	lea    0x7860(%rip),%rax        # a158 <generator>
    28f8:	48 89 c6             	mov    %rax,%rsi
    28fb:	48 8d 05 5e 78 00 00 	lea    0x785e(%rip),%rax        # a160 <distribution>
    2902:	48 89 c7             	mov    %rax,%rdi
    2905:	e8 b0 0f 00 00       	callq  38ba <_ZNSt24uniform_int_distributionIjEclISt26linear_congruential_engineImLm16807ELm0ELm2147483647EEEEjRT_>
    290a:	89 85 24 ff ff ff    	mov    %eax,-0xdc(%rbp)
    2910:	8b 85 2c ff ff ff    	mov    -0xd4(%rbp),%eax
    2916:	3b 85 24 ff ff ff    	cmp    -0xdc(%rbp),%eax
    291c:	73 09                	jae    2927 <main+0x22b>
    291e:	c6 85 1b ff ff ff 01 	movb   $0x1,-0xe5(%rbp)
    2925:	eb 07                	jmp    292e <main+0x232>
    2927:	c6 85 1b ff ff ff 00 	movb   $0x0,-0xe5(%rbp)
    292e:	48 8d 85 50 ff ff ff 	lea    -0xb0(%rbp),%rax
    2935:	48 89 c7             	mov    %rax,%rdi
    2938:	e8 43 0f 00 00       	callq  3880 <_ZN9__gnu_cxx17__normal_iteratorIPjSt6vectorIjSaIjEEEppEv>
    293d:	48 8d 95 58 ff ff ff 	lea    -0xa8(%rbp),%rdx
    2944:	48 8d 85 50 ff ff ff 	lea    -0xb0(%rbp),%rax
    294b:	48 89 d6             	mov    %rdx,%rsi
    294e:	48 89 c7             	mov    %rax,%rdi
    2951:	e8 ea 0e 00 00       	callq  3840 <_ZN9__gnu_cxxneIPjSt6vectorIjSaIjEEEEbRKNS_17__normal_iteratorIT_T0_EESA_>
    2956:	84 c0                	test   %al,%al
    2958:	75 80                	jne    28da <main+0x1de>
    295a:	48 8d 45 a0          	lea    -0x60(%rbp),%rax
    295e:	48 89 c7             	mov    %rax,%rdi
    2961:	e8 8a 08 00 00       	callq  31f0 <_ZNSt6vectorIjSaIjEED1Ev>
    2966:	48 8d 85 40 ff ff ff 	lea    -0xc0(%rbp),%rax
    296d:	48 89 c7             	mov    %rax,%rdi
    2970:	e8 d5 0c 00 00       	callq  364a <_ZN9__gnu_cxx17__normal_iteratorIPSt6vectorIjSaIjEES1_IS3_SaIS3_EEEppEv>
    2975:	48 8d 95 48 ff ff ff 	lea    -0xb8(%rbp),%rdx
    297c:	48 8d 85 40 ff ff ff 	lea    -0xc0(%rbp),%rax
    2983:	48 89 d6             	mov    %rdx,%rsi
    2986:	48 89 c7             	mov    %rax,%rdi
    2989:	e8 7c 0c 00 00       	callq  360a <_ZN9__gnu_cxxneIPSt6vectorIjSaIjEES1_IS3_SaIS3_EEEEbRKNS_17__normal_iteratorIT_T0_EESC_>
    298e:	84 c0                	test   %al,%al
    2990:	0f 85 ea fe ff ff    	jne    2880 <main+0x184>
    2996:	83 85 1c ff ff ff 01 	addl   $0x1,-0xe4(%rbp)
    299d:	83 bd 1c ff ff ff 63 	cmpl   $0x63,-0xe4(%rbp)
    29a4:	0f 8e 9a fe ff ff    	jle    2844 <main+0x148>
    29aa:	e8 51 f9 ff ff       	callq  2300 <_ZNSt6chrono3_V212system_clock3nowEv@plt>
    29af:	48 89 85 38 ff ff ff 	mov    %rax,-0xc8(%rbp)
    29b6:	48 8d 05 6f 36 00 00 	lea    0x366f(%rip),%rax        # 602c <_ZN6__pstl9execution2v1L5unseqE+0x21>
    29bd:	48 89 c6             	mov    %rax,%rsi
    29c0:	48 8d 05 79 76 00 00 	lea    0x7679(%rip),%rax        # a040 <_ZSt4cout@@GLIBCXX_3.4>
    29c7:	48 89 c7             	mov    %rax,%rdi
    29ca:	e8 71 fa ff ff       	callq  2440 <_ZStlsISt11char_traitsIcEERSt13basic_ostreamIcT_ES5_PKc@plt>
    29cf:	48 89 c3             	mov    %rax,%rbx
    29d2:	48 8d 95 30 ff ff ff 	lea    -0xd0(%rbp),%rdx
    29d9:	48 8d 85 38 ff ff ff 	lea    -0xc8(%rbp),%rax
    29e0:	48 89 d6             	mov    %rdx,%rsi
    29e3:	48 89 c7             	mov    %rax,%rdi
    29e6:	e8 04 05 00 00       	callq  2eef <_ZNSt6chronomiINS_3_V212system_clockENS_8durationIlSt5ratioILl1ELl1000000000EEEES6_EENSt11common_typeIJT0_T1_EE4typeERKNS_10time_pointIT_S8_EERKNSC_ISD_S9_EE>
    29eb:	48 89 85 58 ff ff ff 	mov    %rax,-0xa8(%rbp)
    29f2:	48 8d 85 58 ff ff ff 	lea    -0xa8(%rbp),%rax
    29f9:	48 89 c7             	mov    %rax,%rdi
    29fc:	e8 d0 04 00 00       	callq  2ed1 <_ZNSt6chrono13duration_castINS_8durationIlSt5ratioILl1ELl1000EEEElS2_ILl1ELl1000000000EEEENSt9enable_ifIXsrNS_13__is_durationIT_EE5valueES8_E4typeERKNS1_IT0_T1_EE>
    2a01:	48 89 45 a0          	mov    %rax,-0x60(%rbp)
    2a05:	48 8d 45 a0          	lea    -0x60(%rbp),%rax
    2a09:	48 89 c7             	mov    %rax,%rdi
    2a0c:	e8 ab 04 00 00       	callq  2ebc <_ZNKSt6chrono8durationIlSt5ratioILl1ELl1000EEE5countEv>
    2a11:	48 89 c1             	mov    %rax,%rcx
    2a14:	48 ba 0b d7 a3 70 3d 	movabs $0xa3d70a3d70a3d70b,%rdx
    2a1b:	0a d7 a3 
    2a1e:	48 89 c8             	mov    %rcx,%rax
    2a21:	48 f7 ea             	imul   %rdx
    2a24:	48 8d 04 0a          	lea    (%rdx,%rcx,1),%rax
    2a28:	48 c1 f8 06          	sar    $0x6,%rax
    2a2c:	48 c1 f9 3f          	sar    $0x3f,%rcx
    2a30:	48 89 ca             	mov    %rcx,%rdx
    2a33:	48 29 d0             	sub    %rdx,%rax
    2a36:	48 89 c6             	mov    %rax,%rsi
    2a39:	48 89 df             	mov    %rbx,%rdi
    2a3c:	e8 4f fb ff ff       	callq  2590 <_ZNSolsEl@plt>
    2a41:	48 89 c2             	mov    %rax,%rdx
    2a44:	48 8d 05 dd 35 00 00 	lea    0x35dd(%rip),%rax        # 6028 <_ZN6__pstl9execution2v1L5unseqE+0x1d>
    2a4b:	48 89 c6             	mov    %rax,%rsi
    2a4e:	48 89 d7             	mov    %rdx,%rdi
    2a51:	e8 ea f9 ff ff       	callq  2440 <_ZStlsISt11char_traitsIcEERSt13basic_ostreamIcT_ES5_PKc@plt>
    2a56:	e8 a5 f8 ff ff       	callq  2300 <_ZNSt6chrono3_V212system_clock3nowEv@plt>
    2a5b:	48 89 85 30 ff ff ff 	mov    %rax,-0xd0(%rbp)
    2a62:	c7 85 20 ff ff ff 00 	movl   $0x0,-0xe0(%rbp)
    2a69:	00 00 00 
    2a6c:	e9 44 01 00 00       	jmpq   2bb5 <main+0x4b9>
    2a71:	48 8b 45 80          	mov    -0x80(%rbp),%rax
    2a75:	48 89 85 60 ff ff ff 	mov    %rax,-0xa0(%rbp)
    2a7c:	48 8b 85 60 ff ff ff 	mov    -0xa0(%rbp),%rax
    2a83:	48 89 c7             	mov    %rax,%rdi
    2a86:	e8 e3 0a 00 00       	callq  356e <_ZNSt6vectorIS_IjSaIjEESaIS1_EE5beginEv>
    2a8b:	48 89 85 40 ff ff ff 	mov    %rax,-0xc0(%rbp)
    2a92:	48 8b 85 60 ff ff ff 	mov    -0xa0(%rbp),%rax
    2a99:	48 89 c7             	mov    %rax,%rdi
    2a9c:	e8 19 0b 00 00       	callq  35ba <_ZNSt6vectorIS_IjSaIjEESaIS1_EE3endEv>
    2aa1:	48 89 85 48 ff ff ff 	mov    %rax,-0xb8(%rbp)
    2aa8:	e9 e0 00 00 00       	jmpq   2b8d <main+0x491>
    2aad:	48 8d 85 40 ff ff ff 	lea    -0xc0(%rbp),%rax
    2ab4:	48 89 c7             	mov    %rax,%rdi
    2ab7:	e8 b2 0b 00 00       	callq  366e <_ZNK9__gnu_cxx17__normal_iteratorIPSt6vectorIjSaIjEES1_IS3_SaIS3_EEEdeEv>
    2abc:	48 89 c2             	mov    %rax,%rdx
    2abf:	48 8d 45 a0          	lea    -0x60(%rbp),%rax
    2ac3:	48 89 d6             	mov    %rdx,%rsi
    2ac6:	48 89 c7             	mov    %rax,%rdi
    2ac9:	e8 b6 0b 00 00       	callq  3684 <_ZNSt6vectorIjSaIjEEC1ERKS1_>
    2ace:	48 8d 45 a0          	lea    -0x60(%rbp),%rax
    2ad2:	48 89 85 68 ff ff ff 	mov    %rax,-0x98(%rbp)
    2ad9:	48 8b 85 68 ff ff ff 	mov    -0x98(%rbp),%rax
    2ae0:	48 89 c7             	mov    %rax,%rdi
    2ae3:	e8 bc 0c 00 00       	callq  37a4 <_ZNSt6vectorIjSaIjEE5beginEv>
    2ae8:	48 89 85 50 ff ff ff 	mov    %rax,-0xb0(%rbp)
    2aef:	48 8b 85 68 ff ff ff 	mov    -0x98(%rbp),%rax
    2af6:	48 89 c7             	mov    %rax,%rdi
    2af9:	e8 f2 0c 00 00       	callq  37f0 <_ZNSt6vectorIjSaIjEE3endEv>
    2afe:	48 89 85 58 ff ff ff 	mov    %rax,-0xa8(%rbp)
    2b05:	eb 4e                	jmp    2b55 <main+0x459>
    2b07:	48 8d 85 50 ff ff ff 	lea    -0xb0(%rbp),%rax
    2b0e:	48 89 c7             	mov    %rax,%rdi
    2b11:	e8 8e 0d 00 00       	callq  38a4 <_ZNK9__gnu_cxx17__normal_iteratorIPjSt6vectorIjSaIjEEEdeEv>
    2b16:	8b 00                	mov    (%rax),%eax
    2b18:	89 85 28 ff ff ff    	mov    %eax,-0xd8(%rbp)
    2b1e:	48 8d 05 33 76 00 00 	lea    0x7633(%rip),%rax        # a158 <generator>
    2b25:	48 89 c6             	mov    %rax,%rsi
    2b28:	48 8d 05 31 76 00 00 	lea    0x7631(%rip),%rax        # a160 <distribution>
    2b2f:	48 89 c7             	mov    %rax,%rdi
    2b32:	e8 83 0d 00 00       	callq  38ba <_ZNSt24uniform_int_distributionIjEclISt26linear_congruential_engineImLm16807ELm0ELm2147483647EEEEjRT_>
    2b37:	39 85 28 ff ff ff    	cmp    %eax,-0xd8(%rbp)
    2b3d:	0f 92 c0             	setb   %al
    2b40:	88 85 1b ff ff ff    	mov    %al,-0xe5(%rbp)
    2b46:	48 8d 85 50 ff ff ff 	lea    -0xb0(%rbp),%rax
    2b4d:	48 89 c7             	mov    %rax,%rdi
    2b50:	e8 2b 0d 00 00       	callq  3880 <_ZN9__gnu_cxx17__normal_iteratorIPjSt6vectorIjSaIjEEEppEv>
    2b55:	48 8d 95 58 ff ff ff 	lea    -0xa8(%rbp),%rdx
    2b5c:	48 8d 85 50 ff ff ff 	lea    -0xb0(%rbp),%rax
    2b63:	48 89 d6             	mov    %rdx,%rsi
    2b66:	48 89 c7             	mov    %rax,%rdi
    2b69:	e8 d2 0c 00 00       	callq  3840 <_ZN9__gnu_cxxneIPjSt6vectorIjSaIjEEEEbRKNS_17__normal_iteratorIT_T0_EESA_>
    2b6e:	84 c0                	test   %al,%al
    2b70:	75 95                	jne    2b07 <main+0x40b>
    2b72:	48 8d 45 a0          	lea    -0x60(%rbp),%rax
    2b76:	48 89 c7             	mov    %rax,%rdi
    2b79:	e8 72 06 00 00       	callq  31f0 <_ZNSt6vectorIjSaIjEED1Ev>
    2b7e:	48 8d 85 40 ff ff ff 	lea    -0xc0(%rbp),%rax
    2b85:	48 89 c7             	mov    %rax,%rdi
    2b88:	e8 bd 0a 00 00       	callq  364a <_ZN9__gnu_cxx17__normal_iteratorIPSt6vectorIjSaIjEES1_IS3_SaIS3_EEEppEv>
    2b8d:	48 8d 95 48 ff ff ff 	lea    -0xb8(%rbp),%rdx
    2b94:	48 8d 85 40 ff ff ff 	lea    -0xc0(%rbp),%rax
    2b9b:	48 89 d6             	mov    %rdx,%rsi
    2b9e:	48 89 c7             	mov    %rax,%rdi
    2ba1:	e8 64 0a 00 00       	callq  360a <_ZN9__gnu_cxxneIPSt6vectorIjSaIjEES1_IS3_SaIS3_EEEEbRKNS_17__normal_iteratorIT_T0_EESC_>
    2ba6:	84 c0                	test   %al,%al
    2ba8:	0f 85 ff fe ff ff    	jne    2aad <main+0x3b1>
    2bae:	83 85 20 ff ff ff 01 	addl   $0x1,-0xe0(%rbp)
    2bb5:	83 bd 20 ff ff ff 63 	cmpl   $0x63,-0xe0(%rbp)
    2bbc:	0f 8e af fe ff ff    	jle    2a71 <main+0x375>
    2bc2:	e8 39 f7 ff ff       	callq  2300 <_ZNSt6chrono3_V212system_clock3nowEv@plt>
    2bc7:	48 89 85 38 ff ff ff 	mov    %rax,-0xc8(%rbp)
    2bce:	48 8d 05 60 34 00 00 	lea    0x3460(%rip),%rax        # 6035 <_ZN6__pstl9execution2v1L5unseqE+0x2a>
    2bd5:	48 89 c6             	mov    %rax,%rsi
    2bd8:	48 8d 05 61 74 00 00 	lea    0x7461(%rip),%rax        # a040 <_ZSt4cout@@GLIBCXX_3.4>
    2bdf:	48 89 c7             	mov    %rax,%rdi
    2be2:	e8 59 f8 ff ff       	callq  2440 <_ZStlsISt11char_traitsIcEERSt13basic_ostreamIcT_ES5_PKc@plt>
    2be7:	48 89 c3             	mov    %rax,%rbx
    2bea:	48 8d 95 30 ff ff ff 	lea    -0xd0(%rbp),%rdx
    2bf1:	48 8d 85 38 ff ff ff 	lea    -0xc8(%rbp),%rax
    2bf8:	48 89 d6             	mov    %rdx,%rsi
    2bfb:	48 89 c7             	mov    %rax,%rdi
    2bfe:	e8 ec 02 00 00       	callq  2eef <_ZNSt6chronomiINS_3_V212system_clockENS_8durationIlSt5ratioILl1ELl1000000000EEEES6_EENSt11common_typeIJT0_T1_EE4typeERKNS_10time_pointIT_S8_EERKNSC_ISD_S9_EE>
    2c03:	48 89 85 58 ff ff ff 	mov    %rax,-0xa8(%rbp)
    2c0a:	48 8d 85 58 ff ff ff 	lea    -0xa8(%rbp),%rax
    2c11:	48 89 c7             	mov    %rax,%rdi
    2c14:	e8 b8 02 00 00       	callq  2ed1 <_ZNSt6chrono13duration_castINS_8durationIlSt5ratioILl1ELl1000EEEElS2_ILl1ELl1000000000EEEENSt9enable_ifIXsrNS_13__is_durationIT_EE5valueES8_E4typeERKNS1_IT0_T1_EE>
    2c19:	48 89 45 a0          	mov    %rax,-0x60(%rbp)
    2c1d:	48 8d 45 a0          	lea    -0x60(%rbp),%rax
    2c21:	48 89 c7             	mov    %rax,%rdi
    2c24:	e8 93 02 00 00       	callq  2ebc <_ZNKSt6chrono8durationIlSt5ratioILl1ELl1000EEE5countEv>
    2c29:	48 89 c1             	mov    %rax,%rcx
    2c2c:	48 ba 0b d7 a3 70 3d 	movabs $0xa3d70a3d70a3d70b,%rdx
    2c33:	0a d7 a3 
    2c36:	48 89 c8             	mov    %rcx,%rax
    2c39:	48 f7 ea             	imul   %rdx
    2c3c:	48 8d 04 0a          	lea    (%rdx,%rcx,1),%rax
    2c40:	48 c1 f8 06          	sar    $0x6,%rax
    2c44:	48 c1 f9 3f          	sar    $0x3f,%rcx
    2c48:	48 89 ca             	mov    %rcx,%rdx
    2c4b:	48 29 d0             	sub    %rdx,%rax
    2c4e:	48 89 c6             	mov    %rax,%rsi
    2c51:	48 89 df             	mov    %rbx,%rdi
    2c54:	e8 37 f9 ff ff       	callq  2590 <_ZNSolsEl@plt>
    2c59:	48 89 c2             	mov    %rax,%rdx
    2c5c:	48 8d 05 c5 33 00 00 	lea    0x33c5(%rip),%rax        # 6028 <_ZN6__pstl9execution2v1L5unseqE+0x1d>
    2c63:	48 89 c6             	mov    %rax,%rsi
    2c66:	48 89 d7             	mov    %rdx,%rdi
    2c69:	e8 d2 f7 ff ff       	callq  2440 <_ZStlsISt11char_traitsIcEERSt13basic_ostreamIcT_ES5_PKc@plt>
    2c6e:	bb 00 00 00 00       	mov    $0x0,%ebx
    2c73:	48 8d 45 80          	lea    -0x80(%rbp),%rax
    2c77:	48 89 c7             	mov    %rax,%rdi
    2c7a:	e8 d7 06 00 00       	callq  3356 <_ZN9DataTableIjED1Ev>
    2c7f:	89 d8                	mov    %ebx,%eax
    2c81:	48 8b 55 e8          	mov    -0x18(%rbp),%rdx
    2c85:	64 48 2b 14 25 28 00 	sub    %fs:0x28,%rdx
    2c8c:	00 00 
    2c8e:	74 79                	je     2d09 <main+0x60d>
    2c90:	eb 72                	jmp    2d04 <main+0x608>
    2c92:	f3 0f 1e fa          	endbr64 
    2c96:	48 89 c3             	mov    %rax,%rbx
    2c99:	48 8d 45 c0          	lea    -0x40(%rbp),%rax
    2c9d:	48 89 c7             	mov    %rax,%rdi
    2ca0:	e8 0b f7 ff ff       	callq  23b0 <_ZNSt7__cxx1112basic_stringIcSt11char_traitsIcESaIcEED1Ev@plt>
    2ca5:	eb 07                	jmp    2cae <main+0x5b2>
    2ca7:	f3 0f 1e fa          	endbr64 
    2cab:	48 89 c3             	mov    %rax,%rbx
    2cae:	48 8d 45 a0          	lea    -0x60(%rbp),%rax
    2cb2:	48 89 c7             	mov    %rax,%rdi
    2cb5:	e8 d6 f7 ff ff       	callq  2490 <_ZNSaIcED1Ev@plt>
    2cba:	eb 31                	jmp    2ced <main+0x5f1>
    2cbc:	f3 0f 1e fa          	endbr64 
    2cc0:	48 89 c3             	mov    %rax,%rbx
    2cc3:	48 8d 45 a0          	lea    -0x60(%rbp),%rax
    2cc7:	48 89 c7             	mov    %rax,%rdi
    2cca:	e8 21 05 00 00       	callq  31f0 <_ZNSt6vectorIjSaIjEED1Ev>
    2ccf:	eb 1c                	jmp    2ced <main+0x5f1>
    2cd1:	f3 0f 1e fa          	endbr64 
    2cd5:	48 89 c3             	mov    %rax,%rbx
    2cd8:	48 8d 45 a0          	lea    -0x60(%rbp),%rax
    2cdc:	48 89 c7             	mov    %rax,%rdi
    2cdf:	e8 0c 05 00 00       	callq  31f0 <_ZNSt6vectorIjSaIjEED1Ev>
    2ce4:	eb 07                	jmp    2ced <main+0x5f1>
    2ce6:	f3 0f 1e fa          	endbr64 
    2cea:	48 89 c3             	mov    %rax,%rbx
    2ced:	48 8d 45 80          	lea    -0x80(%rbp),%rax
    2cf1:	48 89 c7             	mov    %rax,%rdi
    2cf4:	e8 5d 06 00 00       	callq  3356 <_ZN9DataTableIjED1Ev>
    2cf9:	48 89 d8             	mov    %rbx,%rax
    2cfc:	48 89 c7             	mov    %rax,%rdi
    2cff:	e8 5c f8 ff ff       	callq  2560 <_Unwind_Resume@plt>
    2d04:	e8 b7 f7 ff ff       	callq  24c0 <__stack_chk_fail@plt>
    2d09:	48 8b 5d f8          	mov    -0x8(%rbp),%rbx
    2d0d:	c9                   	leaveq 
    2d0e:	c3                   	retq   

0000000000002d0f <_Z41__static_initialization_and_destruction_0ii>:
    2d0f:	f3 0f 1e fa          	endbr64 
    2d13:	55                   	push   %rbp
    2d14:	48 89 e5             	mov    %rsp,%rbp
    2d17:	48 83 ec 10          	sub    $0x10,%rsp
    2d1b:	89 7d fc             	mov    %edi,-0x4(%rbp)
    2d1e:	89 75 f8             	mov    %esi,-0x8(%rbp)
    2d21:	83 7d fc 01          	cmpl   $0x1,-0x4(%rbp)
    2d25:	75 63                	jne    2d8a <_Z41__static_initialization_and_destruction_0ii+0x7b>
    2d27:	81 7d f8 ff ff 00 00 	cmpl   $0xffff,-0x8(%rbp)
    2d2e:	75 5a                	jne    2d8a <_Z41__static_initialization_and_destruction_0ii+0x7b>
    2d30:	48 8d 05 31 74 00 00 	lea    0x7431(%rip),%rax        # a168 <_ZStL8__ioinit>
    2d37:	48 89 c7             	mov    %rax,%rdi
    2d3a:	e8 d1 f7 ff ff       	callq  2510 <_ZNSt8ios_base4InitC1Ev@plt>
    2d3f:	48 8d 05 c2 72 00 00 	lea    0x72c2(%rip),%rax        # a008 <__dso_handle>
    2d46:	48 89 c2             	mov    %rax,%rdx
    2d49:	48 8d 05 18 74 00 00 	lea    0x7418(%rip),%rax        # a168 <_ZStL8__ioinit>
    2d50:	48 89 c6             	mov    %rax,%rsi
    2d53:	48 8b 05 9e 72 00 00 	mov    0x729e(%rip),%rax        # 9ff8 <_ZNSt8ios_base4InitD1Ev@GLIBCXX_3.4>
    2d5a:	48 89 c7             	mov    %rax,%rdi
    2d5d:	e8 be f6 ff ff       	callq  2420 <__cxa_atexit@plt>
    2d62:	48 8d 05 ef 73 00 00 	lea    0x73ef(%rip),%rax        # a158 <generator>
    2d69:	48 89 c7             	mov    %rax,%rdi
    2d6c:	e8 ef 04 00 00       	callq  3260 <_ZNSt26linear_congruential_engineImLm16807ELm0ELm2147483647EEC1Ev>
    2d71:	ba 1d 00 00 00       	mov    $0x1d,%edx
    2d76:	be 00 00 00 00       	mov    $0x0,%esi
    2d7b:	48 8d 05 de 73 00 00 	lea    0x73de(%rip),%rax        # a160 <distribution>
    2d82:	48 89 c7             	mov    %rax,%rdi
    2d85:	e8 fa 04 00 00       	callq  3284 <_ZNSt24uniform_int_distributionIjEC1Ejj>
    2d8a:	90                   	nop
    2d8b:	c9                   	leaveq 
    2d8c:	c3                   	retq   

0000000000002d8d <_GLOBAL__sub_I__Z10getline_asINSt7__cxx1112basic_stringIcSt11char_traitsIcESaIcEEEEiRSiRT_>:
    2d8d:	f3 0f 1e fa          	endbr64 
    2d91:	55                   	push   %rbp
    2d92:	48 89 e5             	mov    %rsp,%rbp
    2d95:	be ff ff 00 00       	mov    $0xffff,%esi
    2d9a:	bf 01 00 00 00       	mov    $0x1,%edi
    2d9f:	e8 6b ff ff ff       	callq  2d0f <_Z41__static_initialization_and_destruction_0ii>
    2da4:	5d                   	pop    %rbp
    2da5:	c3                   	retq   

0000000000002da6 <_ZnwmPv>:
    2da6:	f3 0f 1e fa          	endbr64 
    2daa:	55                   	push   %rbp
    2dab:	48 89 e5             	mov    %rsp,%rbp
    2dae:	48 89 7d f8          	mov    %rdi,-0x8(%rbp)
    2db2:	48 89 75 f0          	mov    %rsi,-0x10(%rbp)
    2db6:	48 8b 45 f0          	mov    -0x10(%rbp),%rax
    2dba:	5d                   	pop    %rbp
    2dbb:	c3                   	retq   

0000000000002dbc <_ZdlPvS_>:
    2dbc:	f3 0f 1e fa          	endbr64 
    2dc0:	55                   	push   %rbp
    2dc1:	48 89 e5             	mov    %rsp,%rbp
    2dc4:	48 89 7d f8          	mov    %rdi,-0x8(%rbp)
    2dc8:	48 89 75 f0          	mov    %rsi,-0x10(%rbp)
    2dcc:	90                   	nop
    2dcd:	5d                   	pop    %rbp
    2dce:	c3                   	retq   

0000000000002dcf <_ZNSt11char_traitsIcE6lengthEPKc>:
    2dcf:	f3 0f 1e fa          	endbr64 
    2dd3:	55                   	push   %rbp
    2dd4:	48 89 e5             	mov    %rsp,%rbp
    2dd7:	48 83 ec 20          	sub    $0x20,%rsp
    2ddb:	48 89 7d e8          	mov    %rdi,-0x18(%rbp)
    2ddf:	48 8b 45 e8          	mov    -0x18(%rbp),%rax
    2de3:	48 89 45 f8          	mov    %rax,-0x8(%rbp)
    2de7:	b8 00 00 00 00       	mov    $0x0,%eax
    2dec:	84 c0                	test   %al,%al
    2dee:	74 0e                	je     2dfe <_ZNSt11char_traitsIcE6lengthEPKc+0x2f>
    2df0:	48 8b 45 e8          	mov    -0x18(%rbp),%rax
    2df4:	48 89 c7             	mov    %rax,%rdi
    2df7:	e8 2c 02 00 00       	callq  3028 <_ZN9__gnu_cxx11char_traitsIcE6lengthEPKc>
    2dfc:	eb 0d                	jmp    2e0b <_ZNSt11char_traitsIcE6lengthEPKc+0x3c>
    2dfe:	48 8b 45 e8          	mov    -0x18(%rbp),%rax
    2e02:	48 89 c7             	mov    %rax,%rdi
    2e05:	e8 76 f5 ff ff       	callq  2380 <strlen@plt>
    2e0a:	90                   	nop
    2e0b:	c9                   	leaveq 
    2e0c:	c3                   	retq   

0000000000002e0d <_ZStorSt13_Ios_OpenmodeS_>:
    2e0d:	f3 0f 1e fa          	endbr64 
    2e11:	55                   	push   %rbp
    2e12:	48 89 e5             	mov    %rsp,%rbp
    2e15:	89 7d fc             	mov    %edi,-0x4(%rbp)
    2e18:	89 75 f8             	mov    %esi,-0x8(%rbp)
    2e1b:	8b 45 fc             	mov    -0x4(%rbp),%eax
    2e1e:	0b 45 f8             	or     -0x8(%rbp),%eax
    2e21:	5d                   	pop    %rbp
    2e22:	c3                   	retq   
    2e23:	90                   	nop

0000000000002e24 <_ZNKSt6chrono8durationIlSt5ratioILl1ELl1000000000EEE5countEv>:
    2e24:	f3 0f 1e fa          	endbr64 
    2e28:	55                   	push   %rbp
    2e29:	48 89 e5             	mov    %rsp,%rbp
    2e2c:	48 89 7d f8          	mov    %rdi,-0x8(%rbp)
    2e30:	48 8b 45 f8          	mov    -0x8(%rbp),%rax
    2e34:	48 8b 00             	mov    (%rax),%rax
    2e37:	5d                   	pop    %rbp
    2e38:	c3                   	retq   
    2e39:	90                   	nop

0000000000002e3a <_ZNSt6chrono8durationIlSt5ratioILl1ELl1000000000EEEC1IlvEERKT_>:
    2e3a:	f3 0f 1e fa          	endbr64 
    2e3e:	55                   	push   %rbp
    2e3f:	48 89 e5             	mov    %rsp,%rbp
    2e42:	48 89 7d f8          	mov    %rdi,-0x8(%rbp)
    2e46:	48 89 75 f0          	mov    %rsi,-0x10(%rbp)
    2e4a:	48 8b 45 f0          	mov    -0x10(%rbp),%rax
    2e4e:	48 8b 10             	mov    (%rax),%rdx
    2e51:	48 8b 45 f8          	mov    -0x8(%rbp),%rax
    2e55:	48 89 10             	mov    %rdx,(%rax)
    2e58:	90                   	nop
    2e59:	5d                   	pop    %rbp
    2e5a:	c3                   	retq   
    2e5b:	90                   	nop

0000000000002e5c <_ZNSt12_Vector_baseIjSaIjEE12_Vector_implD1Ev>:
    2e5c:	f3 0f 1e fa          	endbr64 
    2e60:	55                   	push   %rbp
    2e61:	48 89 e5             	mov    %rsp,%rbp
    2e64:	48 83 ec 10          	sub    $0x10,%rsp
    2e68:	48 89 7d f8          	mov    %rdi,-0x8(%rbp)
    2e6c:	48 8b 45 f8          	mov    -0x8(%rbp),%rax
    2e70:	48 89 c7             	mov    %rax,%rdi
    2e73:	e8 06 03 00 00       	callq  317e <_ZNSaIjED1Ev>
    2e78:	90                   	nop
    2e79:	c9                   	leaveq 
    2e7a:	c3                   	retq   
    2e7b:	90                   	nop

0000000000002e7c <_ZNSt12_Vector_baseIjSaIjEEC1Ev>:
    2e7c:	f3 0f 1e fa          	endbr64 
    2e80:	55                   	push   %rbp
    2e81:	48 89 e5             	mov    %rsp,%rbp
    2e84:	48 83 ec 10          	sub    $0x10,%rsp
    2e88:	48 89 7d f8          	mov    %rdi,-0x8(%rbp)
    2e8c:	48 8b 45 f8          	mov    -0x8(%rbp),%rax
    2e90:	48 89 c7             	mov    %rax,%rdi
    2e93:	e8 ba 02 00 00       	callq  3152 <_ZNSt12_Vector_baseIjSaIjEE12_Vector_implC1Ev>
    2e98:	90                   	nop
    2e99:	c9                   	leaveq 
    2e9a:	c3                   	retq   
    2e9b:	90                   	nop

0000000000002e9c <_ZNSt6vectorIjSaIjEEC1Ev>:
    2e9c:	f3 0f 1e fa          	endbr64 
    2ea0:	55                   	push   %rbp
    2ea1:	48 89 e5             	mov    %rsp,%rbp
    2ea4:	48 83 ec 10          	sub    $0x10,%rsp
    2ea8:	48 89 7d f8          	mov    %rdi,-0x8(%rbp)
    2eac:	48 8b 45 f8          	mov    -0x8(%rbp),%rax
    2eb0:	48 89 c7             	mov    %rax,%rdi
    2eb3:	e8 c4 ff ff ff       	callq  2e7c <_ZNSt12_Vector_baseIjSaIjEEC1Ev>
    2eb8:	90                   	nop
    2eb9:	c9                   	leaveq 
    2eba:	c3                   	retq   
    2ebb:	90                   	nop

0000000000002ebc <_ZNKSt6chrono8durationIlSt5ratioILl1ELl1000EEE5countEv>:
    2ebc:	f3 0f 1e fa          	endbr64 
    2ec0:	55                   	push   %rbp
    2ec1:	48 89 e5             	mov    %rsp,%rbp
    2ec4:	48 89 7d f8          	mov    %rdi,-0x8(%rbp)
    2ec8:	48 8b 45 f8          	mov    -0x8(%rbp),%rax
    2ecc:	48 8b 00             	mov    (%rax),%rax
    2ecf:	5d                   	pop    %rbp
    2ed0:	c3                   	retq   

0000000000002ed1 <_ZNSt6chrono13duration_castINS_8durationIlSt5ratioILl1ELl1000EEEElS2_ILl1ELl1000000000EEEENSt9enable_ifIXsrNS_13__is_durationIT_EE5valueES8_E4typeERKNS1_IT0_T1_EE>:
    2ed1:	f3 0f 1e fa          	endbr64 
    2ed5:	55                   	push   %rbp
    2ed6:	48 89 e5             	mov    %rsp,%rbp
    2ed9:	48 83 ec 10          	sub    $0x10,%rsp
    2edd:	48 89 7d f8          	mov    %rdi,-0x8(%rbp)
    2ee1:	48 8b 45 f8          	mov    -0x8(%rbp),%rax
    2ee5:	48 89 c7             	mov    %rax,%rdi
    2ee8:	e8 fa 09 00 00       	callq  38e7 <_ZNSt6chrono20__duration_cast_implINS_8durationIlSt5ratioILl1ELl1000EEEES2_ILl1ELl1000000EElLb1ELb0EE6__castIlS2_ILl1ELl1000000000EEEES4_RKNS1_IT_T0_EE>
    2eed:	c9                   	leaveq 
    2eee:	c3                   	retq   

0000000000002eef <_ZNSt6chronomiINS_3_V212system_clockENS_8durationIlSt5ratioILl1ELl1000000000EEEES6_EENSt11common_typeIJT0_T1_EE4typeERKNS_10time_pointIT_S8_EERKNSC_ISD_S9_EE>:
    2eef:	f3 0f 1e fa          	endbr64 
    2ef3:	55                   	push   %rbp
    2ef4:	48 89 e5             	mov    %rsp,%rbp
    2ef7:	48 83 ec 30          	sub    $0x30,%rsp
    2efb:	48 89 7d d8          	mov    %rdi,-0x28(%rbp)
    2eff:	48 89 75 d0          	mov    %rsi,-0x30(%rbp)
    2f03:	64 48 8b 04 25 28 00 	mov    %fs:0x28,%rax
    2f0a:	00 00 
    2f0c:	48 89 45 f8          	mov    %rax,-0x8(%rbp)
    2f10:	31 c0                	xor    %eax,%eax
    2f12:	48 8b 45 d0          	mov    -0x30(%rbp),%rax
    2f16:	48 89 c7             	mov    %rax,%rdi
    2f19:	e8 d0 00 00 00       	callq  2fee <_ZNKSt6chrono10time_pointINS_3_V212system_clockENS_8durationIlSt5ratioILl1ELl1000000000EEEEE16time_since_epochEv>
    2f1e:	48 89 45 f0          	mov    %rax,-0x10(%rbp)
    2f22:	48 8b 45 d8          	mov    -0x28(%rbp),%rax
    2f26:	48 89 c7             	mov    %rax,%rdi
    2f29:	e8 c0 00 00 00       	callq  2fee <_ZNKSt6chrono10time_pointINS_3_V212system_clockENS_8durationIlSt5ratioILl1ELl1000000000EEEEE16time_since_epochEv>
    2f2e:	48 89 45 e8          	mov    %rax,-0x18(%rbp)
    2f32:	48 8d 55 f0          	lea    -0x10(%rbp),%rdx
    2f36:	48 8d 45 e8          	lea    -0x18(%rbp),%rax
    2f3a:	48 89 d6             	mov    %rdx,%rsi
    2f3d:	48 89 c7             	mov    %rax,%rdi
    2f40:	e8 16 00 00 00       	callq  2f5b <_ZNSt6chronomiIlSt5ratioILl1ELl1000000000EElS2_EENSt11common_typeIJNS_8durationIT_T0_EENS4_IT1_T2_EEEE4typeERKS7_RKSA_>
    2f45:	48 8b 55 f8          	mov    -0x8(%rbp),%rdx
    2f49:	64 48 2b 14 25 28 00 	sub    %fs:0x28,%rdx
    2f50:	00 00 
    2f52:	74 05                	je     2f59 <_ZNSt6chronomiINS_3_V212system_clockENS_8durationIlSt5ratioILl1ELl1000000000EEEES6_EENSt11common_typeIJT0_T1_EE4typeERKNS_10time_pointIT_S8_EERKNSC_ISD_S9_EE+0x6a>
    2f54:	e8 67 f5 ff ff       	callq  24c0 <__stack_chk_fail@plt>
    2f59:	c9                   	leaveq 
    2f5a:	c3                   	retq   

0000000000002f5b <_ZNSt6chronomiIlSt5ratioILl1ELl1000000000EElS2_EENSt11common_typeIJNS_8durationIT_T0_EENS4_IT1_T2_EEEE4typeERKS7_RKSA_>:
    2f5b:	f3 0f 1e fa          	endbr64 
    2f5f:	55                   	push   %rbp
    2f60:	48 89 e5             	mov    %rsp,%rbp
    2f63:	53                   	push   %rbx
    2f64:	48 83 ec 48          	sub    $0x48,%rsp
    2f68:	48 89 7d b8          	mov    %rdi,-0x48(%rbp)
    2f6c:	48 89 75 b0          	mov    %rsi,-0x50(%rbp)
    2f70:	64 48 8b 04 25 28 00 	mov    %fs:0x28,%rax
    2f77:	00 00 
    2f79:	48 89 45 e8          	mov    %rax,-0x18(%rbp)
    2f7d:	31 c0                	xor    %eax,%eax
    2f7f:	48 8b 45 b8          	mov    -0x48(%rbp),%rax
    2f83:	48 8b 00             	mov    (%rax),%rax
    2f86:	48 89 45 c8          	mov    %rax,-0x38(%rbp)
    2f8a:	48 8d 45 c8          	lea    -0x38(%rbp),%rax
    2f8e:	48 89 c7             	mov    %rax,%rdi
    2f91:	e8 8e fe ff ff       	callq  2e24 <_ZNKSt6chrono8durationIlSt5ratioILl1ELl1000000000EEE5countEv>
    2f96:	48 89 c3             	mov    %rax,%rbx
    2f99:	48 8b 45 b0          	mov    -0x50(%rbp),%rax
    2f9d:	48 8b 00             	mov    (%rax),%rax
    2fa0:	48 89 45 d0          	mov    %rax,-0x30(%rbp)
    2fa4:	48 8d 45 d0          	lea    -0x30(%rbp),%rax
    2fa8:	48 89 c7             	mov    %rax,%rdi
    2fab:	e8 74 fe ff ff       	callq  2e24 <_ZNKSt6chrono8durationIlSt5ratioILl1ELl1000000000EEE5countEv>
    2fb0:	48 89 c2             	mov    %rax,%rdx
    2fb3:	48 89 d8             	mov    %rbx,%rax
    2fb6:	48 29 d0             	sub    %rdx,%rax
    2fb9:	48 89 45 d8          	mov    %rax,-0x28(%rbp)
    2fbd:	48 8d 55 d8          	lea    -0x28(%rbp),%rdx
    2fc1:	48 8d 45 e0          	lea    -0x20(%rbp),%rax
    2fc5:	48 89 d6             	mov    %rdx,%rsi
    2fc8:	48 89 c7             	mov    %rax,%rdi
    2fcb:	e8 6a fe ff ff       	callq  2e3a <_ZNSt6chrono8durationIlSt5ratioILl1ELl1000000000EEEC1IlvEERKT_>
    2fd0:	48 8b 45 e0          	mov    -0x20(%rbp),%rax
    2fd4:	48 8b 55 e8          	mov    -0x18(%rbp),%rdx
    2fd8:	64 48 2b 14 25 28 00 	sub    %fs:0x28,%rdx
    2fdf:	00 00 
    2fe1:	74 05                	je     2fe8 <_ZNSt6chronomiIlSt5ratioILl1ELl1000000000EElS2_EENSt11common_typeIJNS_8durationIT_T0_EENS4_IT1_T2_EEEE4typeERKS7_RKSA_+0x8d>
    2fe3:	e8 d8 f4 ff ff       	callq  24c0 <__stack_chk_fail@plt>
    2fe8:	48 8b 5d f8          	mov    -0x8(%rbp),%rbx
    2fec:	c9                   	leaveq 
    2fed:	c3                   	retq   

0000000000002fee <_ZNKSt6chrono10time_pointINS_3_V212system_clockENS_8durationIlSt5ratioILl1ELl1000000000EEEEE16time_since_epochEv>:
    2fee:	f3 0f 1e fa          	endbr64 
    2ff2:	55                   	push   %rbp
    2ff3:	48 89 e5             	mov    %rsp,%rbp
    2ff6:	48 89 7d f8          	mov    %rdi,-0x8(%rbp)
    2ffa:	48 8b 45 f8          	mov    -0x8(%rbp),%rax
    2ffe:	48 8b 00             	mov    (%rax),%rax
    3001:	5d                   	pop    %rbp
    3002:	c3                   	retq   

0000000000003003 <_ZN9__gnu_cxx11char_traitsIcE2eqERKcS3_>:
    3003:	f3 0f 1e fa          	endbr64 
    3007:	55                   	push   %rbp
    3008:	48 89 e5             	mov    %rsp,%rbp
    300b:	48 89 7d f8          	mov    %rdi,-0x8(%rbp)
    300f:	48 89 75 f0          	mov    %rsi,-0x10(%rbp)
    3013:	48 8b 45 f8          	mov    -0x8(%rbp),%rax
    3017:	0f b6 10             	movzbl (%rax),%edx
    301a:	48 8b 45 f0          	mov    -0x10(%rbp),%rax
    301e:	0f b6 00             	movzbl (%rax),%eax
    3021:	38 c2                	cmp    %al,%dl
    3023:	0f 94 c0             	sete   %al
    3026:	5d                   	pop    %rbp
    3027:	c3                   	retq   

0000000000003028 <_ZN9__gnu_cxx11char_traitsIcE6lengthEPKc>:
    3028:	f3 0f 1e fa          	endbr64 
    302c:	55                   	push   %rbp
    302d:	48 89 e5             	mov    %rsp,%rbp
    3030:	48 83 ec 30          	sub    $0x30,%rsp
    3034:	48 89 7d d8          	mov    %rdi,-0x28(%rbp)
    3038:	64 48 8b 04 25 28 00 	mov    %fs:0x28,%rax
    303f:	00 00 
    3041:	48 89 45 f8          	mov    %rax,-0x8(%rbp)
    3045:	31 c0                	xor    %eax,%eax
    3047:	48 c7 45 f0 00 00 00 	movq   $0x0,-0x10(%rbp)
    304e:	00 
    304f:	eb 05                	jmp    3056 <_ZN9__gnu_cxx11char_traitsIcE6lengthEPKc+0x2e>
    3051:	48 83 45 f0 01       	addq   $0x1,-0x10(%rbp)
    3056:	c6 45 ef 00          	movb   $0x0,-0x11(%rbp)
    305a:	48 8b 55 d8          	mov    -0x28(%rbp),%rdx
    305e:	48 8b 45 f0          	mov    -0x10(%rbp),%rax
    3062:	48 01 c2             	add    %rax,%rdx
    3065:	48 8d 45 ef          	lea    -0x11(%rbp),%rax
    3069:	48 89 c6             	mov    %rax,%rsi
    306c:	48 89 d7             	mov    %rdx,%rdi
    306f:	e8 8f ff ff ff       	callq  3003 <_ZN9__gnu_cxx11char_traitsIcE2eqERKcS3_>
    3074:	83 f0 01             	xor    $0x1,%eax
    3077:	84 c0                	test   %al,%al
    3079:	75 d6                	jne    3051 <_ZN9__gnu_cxx11char_traitsIcE6lengthEPKc+0x29>
    307b:	48 8b 45 f0          	mov    -0x10(%rbp),%rax
    307f:	48 8b 55 f8          	mov    -0x8(%rbp),%rdx
    3083:	64 48 2b 14 25 28 00 	sub    %fs:0x28,%rdx
    308a:	00 00 
    308c:	74 05                	je     3093 <_ZN9__gnu_cxx11char_traitsIcE6lengthEPKc+0x6b>
    308e:	e8 2d f4 ff ff       	callq  24c0 <__stack_chk_fail@plt>
    3093:	c9                   	leaveq 
    3094:	c3                   	retq   
    3095:	90                   	nop

0000000000003096 <_ZNSt7__cxx1112basic_stringIcSt11char_traitsIcESaIcEE12_Alloc_hiderD1Ev>:
    3096:	f3 0f 1e fa          	endbr64 
    309a:	55                   	push   %rbp
    309b:	48 89 e5             	mov    %rsp,%rbp
    309e:	48 83 ec 10          	sub    $0x10,%rsp
    30a2:	48 89 7d f8          	mov    %rdi,-0x8(%rbp)
    30a6:	48 8b 45 f8          	mov    -0x8(%rbp),%rax
    30aa:	48 89 c7             	mov    %rax,%rdi
    30ad:	e8 6e f2 ff ff       	callq  2320 <_ZNSaIcED2Ev@plt>
    30b2:	90                   	nop
    30b3:	c9                   	leaveq 
    30b4:	c3                   	retq   
    30b5:	90                   	nop

00000000000030b6 <_ZNSt7__cxx1112basic_stringIcSt11char_traitsIcESaIcEEC1IS3_EEPKcRKS3_>:
    30b6:	f3 0f 1e fa          	endbr64 
    30ba:	55                   	push   %rbp
    30bb:	48 89 e5             	mov    %rsp,%rbp
    30be:	53                   	push   %rbx
    30bf:	48 83 ec 28          	sub    $0x28,%rsp
    30c3:	48 89 7d e8          	mov    %rdi,-0x18(%rbp)
    30c7:	48 89 75 e0          	mov    %rsi,-0x20(%rbp)
    30cb:	48 89 55 d8          	mov    %rdx,-0x28(%rbp)
    30cf:	48 8b 5d e8          	mov    -0x18(%rbp),%rbx
    30d3:	48 8b 45 e8          	mov    -0x18(%rbp),%rax
    30d7:	48 89 c7             	mov    %rax,%rdi
    30da:	e8 21 f3 ff ff       	callq  2400 <_ZNSt7__cxx1112basic_stringIcSt11char_traitsIcESaIcEE13_M_local_dataEv@plt>
    30df:	48 89 c1             	mov    %rax,%rcx
    30e2:	48 8b 45 d8          	mov    -0x28(%rbp),%rax
    30e6:	48 89 c2             	mov    %rax,%rdx
    30e9:	48 89 ce             	mov    %rcx,%rsi
    30ec:	48 89 df             	mov    %rbx,%rdi
    30ef:	e8 8c f3 ff ff       	callq  2480 <_ZNSt7__cxx1112basic_stringIcSt11char_traitsIcESaIcEE12_Alloc_hiderC1EPcRKS3_@plt>
    30f4:	48 83 7d e0 00       	cmpq   $0x0,-0x20(%rbp)
    30f9:	74 15                	je     3110 <_ZNSt7__cxx1112basic_stringIcSt11char_traitsIcESaIcEEC1IS3_EEPKcRKS3_+0x5a>
    30fb:	48 8b 45 e0          	mov    -0x20(%rbp),%rax
    30ff:	48 89 c7             	mov    %rax,%rdi
    3102:	e8 c8 fc ff ff       	callq  2dcf <_ZNSt11char_traitsIcE6lengthEPKc>
    3107:	48 8b 55 e0          	mov    -0x20(%rbp),%rdx
    310b:	48 01 d0             	add    %rdx,%rax
    310e:	eb 08                	jmp    3118 <_ZNSt7__cxx1112basic_stringIcSt11char_traitsIcESaIcEEC1IS3_EEPKcRKS3_+0x62>
    3110:	48 8b 45 e0          	mov    -0x20(%rbp),%rax
    3114:	48 83 e8 01          	sub    $0x1,%rax
    3118:	48 8b 75 e0          	mov    -0x20(%rbp),%rsi
    311c:	48 8b 4d e8          	mov    -0x18(%rbp),%rcx
    3120:	48 89 c2             	mov    %rax,%rdx
    3123:	48 89 cf             	mov    %rcx,%rdi
    3126:	e8 3d 08 00 00       	callq  3968 <_ZNSt7__cxx1112basic_stringIcSt11char_traitsIcESaIcEE12_M_constructIPKcEEvT_S8_>
    312b:	eb 1e                	jmp    314b <_ZNSt7__cxx1112basic_stringIcSt11char_traitsIcESaIcEEC1IS3_EEPKcRKS3_+0x95>
    312d:	f3 0f 1e fa          	endbr64 
    3131:	48 89 c3             	mov    %rax,%rbx
    3134:	48 8b 45 e8          	mov    -0x18(%rbp),%rax
    3138:	48 89 c7             	mov    %rax,%rdi
    313b:	e8 56 ff ff ff       	callq  3096 <_ZNSt7__cxx1112basic_stringIcSt11char_traitsIcESaIcEE12_Alloc_hiderD1Ev>
    3140:	48 89 d8             	mov    %rbx,%rax
    3143:	48 89 c7             	mov    %rax,%rdi
    3146:	e8 15 f4 ff ff       	callq  2560 <_Unwind_Resume@plt>
    314b:	48 8b 5d f8          	mov    -0x8(%rbp),%rbx
    314f:	c9                   	leaveq 
    3150:	c3                   	retq   
    3151:	90                   	nop

0000000000003152 <_ZNSt12_Vector_baseIjSaIjEE12_Vector_implC1Ev>:
    3152:	f3 0f 1e fa          	endbr64 
    3156:	55                   	push   %rbp
    3157:	48 89 e5             	mov    %rsp,%rbp
    315a:	48 83 ec 10          	sub    $0x10,%rsp
    315e:	48 89 7d f8          	mov    %rdi,-0x8(%rbp)
    3162:	48 8b 45 f8          	mov    -0x8(%rbp),%rax
    3166:	48 89 c7             	mov    %rax,%rdi
    3169:	e8 2c 08 00 00       	callq  399a <_ZNSaIjEC1Ev>
    316e:	48 8b 45 f8          	mov    -0x8(%rbp),%rax
    3172:	48 89 c7             	mov    %rax,%rdi
    3175:	e8 40 08 00 00       	callq  39ba <_ZNSt12_Vector_baseIjSaIjEE17_Vector_impl_dataC1Ev>
    317a:	90                   	nop
    317b:	c9                   	leaveq 
    317c:	c3                   	retq   
    317d:	90                   	nop

000000000000317e <_ZNSaIjED1Ev>:
    317e:	f3 0f 1e fa          	endbr64 
    3182:	55                   	push   %rbp
    3183:	48 89 e5             	mov    %rsp,%rbp
    3186:	48 83 ec 10          	sub    $0x10,%rsp
    318a:	48 89 7d f8          	mov    %rdi,-0x8(%rbp)
    318e:	48 8b 45 f8          	mov    -0x8(%rbp),%rax
    3192:	48 89 c7             	mov    %rax,%rdi
    3195:	e8 52 08 00 00       	callq  39ec <_ZN9__gnu_cxx13new_allocatorIjED1Ev>
    319a:	90                   	nop
    319b:	c9                   	leaveq 
    319c:	c3                   	retq   
    319d:	90                   	nop

000000000000319e <_ZNSt12_Vector_baseIjSaIjEED1Ev>:
    319e:	f3 0f 1e fa          	endbr64 
    31a2:	55                   	push   %rbp
    31a3:	48 89 e5             	mov    %rsp,%rbp
    31a6:	48 83 ec 10          	sub    $0x10,%rsp
    31aa:	48 89 7d f8          	mov    %rdi,-0x8(%rbp)
    31ae:	48 8b 45 f8          	mov    -0x8(%rbp),%rax
    31b2:	48 8b 50 10          	mov    0x10(%rax),%rdx
    31b6:	48 8b 45 f8          	mov    -0x8(%rbp),%rax
    31ba:	48 8b 08             	mov    (%rax),%rcx
    31bd:	48 89 d0             	mov    %rdx,%rax
    31c0:	48 29 c8             	sub    %rcx,%rax
    31c3:	48 c1 f8 02          	sar    $0x2,%rax
    31c7:	48 89 c2             	mov    %rax,%rdx
    31ca:	48 8b 45 f8          	mov    -0x8(%rbp),%rax
    31ce:	48 8b 08             	mov    (%rax),%rcx
    31d1:	48 8b 45 f8          	mov    -0x8(%rbp),%rax
    31d5:	48 89 ce             	mov    %rcx,%rsi
    31d8:	48 89 c7             	mov    %rax,%rdi
    31db:	e8 1c 08 00 00       	callq  39fc <_ZNSt12_Vector_baseIjSaIjEE13_M_deallocateEPjm>
    31e0:	48 8b 45 f8          	mov    -0x8(%rbp),%rax
    31e4:	48 89 c7             	mov    %rax,%rdi
    31e7:	e8 70 fc ff ff       	callq  2e5c <_ZNSt12_Vector_baseIjSaIjEE12_Vector_implD1Ev>
    31ec:	90                   	nop
    31ed:	c9                   	leaveq 
    31ee:	c3                   	retq   
    31ef:	90                   	nop

00000000000031f0 <_ZNSt6vectorIjSaIjEED1Ev>:
    31f0:	f3 0f 1e fa          	endbr64 
    31f4:	55                   	push   %rbp
    31f5:	48 89 e5             	mov    %rsp,%rbp
    31f8:	48 83 ec 10          	sub    $0x10,%rsp
    31fc:	48 89 7d f8          	mov    %rdi,-0x8(%rbp)
    3200:	48 8b 45 f8          	mov    -0x8(%rbp),%rax
    3204:	48 89 c7             	mov    %rax,%rdi
    3207:	e8 2a 08 00 00       	callq  3a36 <_ZNSt12_Vector_baseIjSaIjEE19_M_get_Tp_allocatorEv>
    320c:	48 89 c2             	mov    %rax,%rdx
    320f:	48 8b 45 f8          	mov    -0x8(%rbp),%rax
    3213:	48 8b 48 08          	mov    0x8(%rax),%rcx
    3217:	48 8b 45 f8          	mov    -0x8(%rbp),%rax
    321b:	48 8b 00             	mov    (%rax),%rax
    321e:	48 89 ce             	mov    %rcx,%rsi
    3221:	48 89 c7             	mov    %rax,%rdi
    3224:	e8 1f 08 00 00       	callq  3a48 <_ZSt8_DestroyIPjjEvT_S1_RSaIT0_E>
    3229:	48 8b 45 f8          	mov    -0x8(%rbp),%rax
    322d:	48 89 c7             	mov    %rax,%rdi
    3230:	e8 69 ff ff ff       	callq  319e <_ZNSt12_Vector_baseIjSaIjEED1Ev>
    3235:	90                   	nop
    3236:	c9                   	leaveq 
    3237:	c3                   	retq   

0000000000003238 <_ZNKSt6vectorIjSaIjEE4sizeEv>:
    3238:	f3 0f 1e fa          	endbr64 
    323c:	55                   	push   %rbp
    323d:	48 89 e5             	mov    %rsp,%rbp
    3240:	48 89 7d f8          	mov    %rdi,-0x8(%rbp)
    3244:	48 8b 45 f8          	mov    -0x8(%rbp),%rax
    3248:	48 8b 50 08          	mov    0x8(%rax),%rdx
    324c:	48 8b 45 f8          	mov    -0x8(%rbp),%rax
    3250:	48 8b 08             	mov    (%rax),%rcx
    3253:	48 89 d0             	mov    %rdx,%rax
    3256:	48 29 c8             	sub    %rcx,%rax
    3259:	48 c1 f8 02          	sar    $0x2,%rax
    325d:	5d                   	pop    %rbp
    325e:	c3                   	retq   
    325f:	90                   	nop

0000000000003260 <_ZNSt26linear_congruential_engineImLm16807ELm0ELm2147483647EEC1Ev>:
    3260:	f3 0f 1e fa          	endbr64 
    3264:	55                   	push   %rbp
    3265:	48 89 e5             	mov    %rsp,%rbp
    3268:	48 83 ec 10          	sub    $0x10,%rsp
    326c:	48 89 7d f8          	mov    %rdi,-0x8(%rbp)
    3270:	48 8b 45 f8          	mov    -0x8(%rbp),%rax
    3274:	be 01 00 00 00       	mov    $0x1,%esi
    3279:	48 89 c7             	mov    %rax,%rdi
    327c:	e8 f5 07 00 00       	callq  3a76 <_ZNSt26linear_congruential_engineImLm16807ELm0ELm2147483647EEC1Em>
    3281:	90                   	nop
    3282:	c9                   	leaveq 
    3283:	c3                   	retq   

0000000000003284 <_ZNSt24uniform_int_distributionIjEC1Ejj>:
    3284:	f3 0f 1e fa          	endbr64 
    3288:	55                   	push   %rbp
    3289:	48 89 e5             	mov    %rsp,%rbp
    328c:	48 83 ec 10          	sub    $0x10,%rsp
    3290:	48 89 7d f8          	mov    %rdi,-0x8(%rbp)
    3294:	89 75 f4             	mov    %esi,-0xc(%rbp)
    3297:	89 55 f0             	mov    %edx,-0x10(%rbp)
    329a:	48 8b 45 f8          	mov    -0x8(%rbp),%rax
    329e:	8b 55 f0             	mov    -0x10(%rbp),%edx
    32a1:	8b 4d f4             	mov    -0xc(%rbp),%ecx
    32a4:	89 ce                	mov    %ecx,%esi
    32a6:	48 89 c7             	mov    %rax,%rdi
    32a9:	e8 f2 07 00 00       	callq  3aa0 <_ZNSt24uniform_int_distributionIjE10param_typeC1Ejj>
    32ae:	90                   	nop
    32af:	c9                   	leaveq 
    32b0:	c3                   	retq   
    32b1:	90                   	nop

00000000000032b2 <_ZNSt12_Vector_baseISt6vectorIjSaIjEESaIS2_EEC1Ev>:
    32b2:	f3 0f 1e fa          	endbr64 
    32b6:	55                   	push   %rbp
    32b7:	48 89 e5             	mov    %rsp,%rbp
    32ba:	48 83 ec 10          	sub    $0x10,%rsp
    32be:	48 89 7d f8          	mov    %rdi,-0x8(%rbp)
    32c2:	48 8b 45 f8          	mov    -0x8(%rbp),%rax
    32c6:	48 89 c7             	mov    %rax,%rdi
    32c9:	e8 fa 07 00 00       	callq  3ac8 <_ZNSt12_Vector_baseISt6vectorIjSaIjEESaIS2_EE12_Vector_implC1Ev>
    32ce:	90                   	nop
    32cf:	c9                   	leaveq 
    32d0:	c3                   	retq   
    32d1:	90                   	nop

00000000000032d2 <_ZNSt6vectorIS_IjSaIjEESaIS1_EEC1Ev>:
    32d2:	f3 0f 1e fa          	endbr64 
    32d6:	55                   	push   %rbp
    32d7:	48 89 e5             	mov    %rsp,%rbp
    32da:	48 83 ec 10          	sub    $0x10,%rsp
    32de:	48 89 7d f8          	mov    %rdi,-0x8(%rbp)
    32e2:	48 8b 45 f8          	mov    -0x8(%rbp),%rax
    32e6:	48 89 c7             	mov    %rax,%rdi
    32e9:	e8 c4 ff ff ff       	callq  32b2 <_ZNSt12_Vector_baseISt6vectorIjSaIjEESaIS2_EEC1Ev>
    32ee:	90                   	nop
    32ef:	c9                   	leaveq 
    32f0:	c3                   	retq   
    32f1:	90                   	nop

00000000000032f2 <_ZN9DataTableIjEC1Ev>:
    32f2:	f3 0f 1e fa          	endbr64 
    32f6:	55                   	push   %rbp
    32f7:	48 89 e5             	mov    %rsp,%rbp
    32fa:	53                   	push   %rbx
    32fb:	48 83 ec 18          	sub    $0x18,%rsp
    32ff:	48 89 7d e8          	mov    %rdi,-0x18(%rbp)
    3303:	bf 18 00 00 00       	mov    $0x18,%edi
    3308:	e8 43 f1 ff ff       	callq  2450 <_Znwm@plt>
    330d:	48 89 c3             	mov    %rax,%rbx
    3310:	48 c7 03 00 00 00 00 	movq   $0x0,(%rbx)
    3317:	48 c7 43 08 00 00 00 	movq   $0x0,0x8(%rbx)
    331e:	00 
    331f:	48 c7 43 10 00 00 00 	movq   $0x0,0x10(%rbx)
    3326:	00 
    3327:	48 89 df             	mov    %rbx,%rdi
    332a:	e8 a3 ff ff ff       	callq  32d2 <_ZNSt6vectorIS_IjSaIjEESaIS1_EEC1Ev>
    332f:	48 8b 45 e8          	mov    -0x18(%rbp),%rax
    3333:	48 89 18             	mov    %rbx,(%rax)
    3336:	48 8b 45 e8          	mov    -0x18(%rbp),%rax
    333a:	48 c7 40 08 00 00 00 	movq   $0x0,0x8(%rax)
    3341:	00 
    3342:	48 8b 45 e8          	mov    -0x18(%rbp),%rax
    3346:	48 c7 40 10 00 00 00 	movq   $0x0,0x10(%rax)
    334d:	00 
    334e:	90                   	nop
    334f:	48 8b 5d f8          	mov    -0x8(%rbp),%rbx
    3353:	c9                   	leaveq 
    3354:	c3                   	retq   
    3355:	90                   	nop

0000000000003356 <_ZN9DataTableIjED1Ev>:
    3356:	f3 0f 1e fa          	endbr64 
    335a:	55                   	push   %rbp
    335b:	48 89 e5             	mov    %rsp,%rbp
    335e:	48 89 7d f8          	mov    %rdi,-0x8(%rbp)
    3362:	90                   	nop
    3363:	5d                   	pop    %rbp
    3364:	c3                   	retq   
    3365:	90                   	nop

0000000000003366 <_ZN9DataTableIjE7fromCSVERKNSt7__cxx1112basic_stringIcSt11char_traitsIcESaIcEEE>:
    3366:	f3 0f 1e fa          	endbr64 
    336a:	55                   	push   %rbp
    336b:	48 89 e5             	mov    %rsp,%rbp
    336e:	53                   	push   %rbx
    336f:	48 81 ec 58 02 00 00 	sub    $0x258,%rsp
    3376:	48 89 bd a8 fd ff ff 	mov    %rdi,-0x258(%rbp)
    337d:	48 89 b5 a0 fd ff ff 	mov    %rsi,-0x260(%rbp)
    3384:	64 48 8b 04 25 28 00 	mov    %fs:0x28,%rax
    338b:	00 00 
    338d:	48 89 45 e8          	mov    %rax,-0x18(%rbp)
    3391:	31 c0                	xor    %eax,%eax
    3393:	48 8d 05 a5 2c 00 00 	lea    0x2ca5(%rip),%rax        # 603f <_ZN6__pstl9execution2v1L5unseqE+0x34>
    339a:	48 89 c6             	mov    %rax,%rsi
    339d:	48 8d 05 9c 6c 00 00 	lea    0x6c9c(%rip),%rax        # a040 <_ZSt4cout@@GLIBCXX_3.4>
    33a4:	48 89 c7             	mov    %rax,%rdi
    33a7:	e8 94 f0 ff ff       	callq  2440 <_ZStlsISt11char_traitsIcEERSt13basic_ostreamIcT_ES5_PKc@plt>
    33ac:	48 89 c2             	mov    %rax,%rdx
    33af:	48 8b 85 a0 fd ff ff 	mov    -0x260(%rbp),%rax
    33b6:	48 89 c6             	mov    %rax,%rsi
    33b9:	48 89 d7             	mov    %rdx,%rdi
    33bc:	e8 6f f0 ff ff       	callq  2430 <_ZStlsIcSt11char_traitsIcESaIcEERSt13basic_ostreamIT_T0_ES7_RKNSt7__cxx1112basic_stringIS4_S5_T1_EE@plt>
    33c1:	48 8b 15 08 6c 00 00 	mov    0x6c08(%rip),%rdx        # 9fd0 <_ZSt4endlIcSt11char_traitsIcEERSt13basic_ostreamIT_T0_ES6_@GLIBCXX_3.4>
    33c8:	48 89 d6             	mov    %rdx,%rsi
    33cb:	48 89 c7             	mov    %rax,%rdi
    33ce:	e8 9d f0 ff ff       	callq  2470 <_ZNSolsEPFRSoS_E@plt>
    33d3:	48 8b 8d a0 fd ff ff 	mov    -0x260(%rbp),%rcx
    33da:	48 8d 85 e0 fd ff ff 	lea    -0x220(%rbp),%rax
    33e1:	ba 08 00 00 00       	mov    $0x8,%edx
    33e6:	48 89 ce             	mov    %rcx,%rsi
    33e9:	48 89 c7             	mov    %rax,%rdi
    33ec:	e8 3f f1 ff ff       	callq  2530 <_ZNSt14basic_ifstreamIcSt11char_traitsIcEEC1ERKNSt7__cxx1112basic_stringIcS1_SaIcEEESt13_Ios_Openmode@plt>
    33f1:	48 8d 85 c0 fd ff ff 	lea    -0x240(%rbp),%rax
    33f8:	48 89 c7             	mov    %rax,%rdi
    33fb:	e8 9c fa ff ff       	callq  2e9c <_ZNSt6vectorIjSaIjEEC1Ev>
    3400:	48 c7 85 b8 fd ff ff 	movq   $0x0,-0x248(%rbp)
    3407:	00 00 00 00 
    340b:	eb 5f                	jmp    346c <_ZN9DataTableIjE7fromCSVERKNSt7__cxx1112basic_stringIcSt11char_traitsIcESaIcEEE+0x106>
    340d:	48 8b 85 a8 fd ff ff 	mov    -0x258(%rbp),%rax
    3414:	48 8b 00             	mov    (%rax),%rax
    3417:	48 8d 95 c0 fd ff ff 	lea    -0x240(%rbp),%rdx
    341e:	48 89 d6             	mov    %rdx,%rsi
    3421:	48 89 c7             	mov    %rax,%rdi
    3424:	e8 21 08 00 00       	callq  3c4a <_ZNSt6vectorIS_IjSaIjEESaIS1_EE9push_backERKS1_>
    3429:	48 8d 85 c0 fd ff ff 	lea    -0x240(%rbp),%rax
    3430:	48 89 c7             	mov    %rax,%rdi
    3433:	e8 00 fe ff ff       	callq  3238 <_ZNKSt6vectorIjSaIjEE4sizeEv>
    3438:	48 8b 95 a8 fd ff ff 	mov    -0x258(%rbp),%rdx
    343f:	48 89 42 08          	mov    %rax,0x8(%rdx)
    3443:	48 8b 85 a8 fd ff ff 	mov    -0x258(%rbp),%rax
    344a:	48 8b 40 10          	mov    0x10(%rax),%rax
    344e:	48 8d 50 01          	lea    0x1(%rax),%rdx
    3452:	48 8b 85 a8 fd ff ff 	mov    -0x258(%rbp),%rax
    3459:	48 89 50 10          	mov    %rdx,0x10(%rax)
    345d:	48 8d 85 c0 fd ff ff 	lea    -0x240(%rbp),%rax
    3464:	48 89 c7             	mov    %rax,%rdi
    3467:	e8 5e 08 00 00       	callq  3cca <_ZNSt6vectorIjSaIjEE5clearEv>
    346c:	48 8d 95 c0 fd ff ff 	lea    -0x240(%rbp),%rdx
    3473:	48 8d 85 e0 fd ff ff 	lea    -0x220(%rbp),%rax
    347a:	48 89 d6             	mov    %rdx,%rsi
    347d:	48 89 c7             	mov    %rax,%rdi
    3480:	e8 6e 06 00 00       	callq  3af3 <_Z21getNextLineAndSplitAsIjEiRSiRSt6vectorIT_SaIS2_EE>
    3485:	85 c0                	test   %eax,%eax
    3487:	0f 95 c0             	setne  %al
    348a:	84 c0                	test   %al,%al
    348c:	0f 85 7b ff ff ff    	jne    340d <_ZN9DataTableIjE7fromCSVERKNSt7__cxx1112basic_stringIcSt11char_traitsIcESaIcEEE+0xa7>
    3492:	48 8d 05 b8 2b 00 00 	lea    0x2bb8(%rip),%rax        # 6051 <_ZN6__pstl9execution2v1L5unseqE+0x46>
    3499:	48 89 c6             	mov    %rax,%rsi
    349c:	48 8d 05 9d 6b 00 00 	lea    0x6b9d(%rip),%rax        # a040 <_ZSt4cout@@GLIBCXX_3.4>
    34a3:	48 89 c7             	mov    %rax,%rdi
    34a6:	e8 95 ef ff ff       	callq  2440 <_ZStlsISt11char_traitsIcEERSt13basic_ostreamIcT_ES5_PKc@plt>
    34ab:	48 89 c2             	mov    %rax,%rdx
    34ae:	48 8b 85 a8 fd ff ff 	mov    -0x258(%rbp),%rax
    34b5:	48 8b 40 10          	mov    0x10(%rax),%rax
    34b9:	48 89 c6             	mov    %rax,%rsi
    34bc:	48 89 d7             	mov    %rdx,%rdi
    34bf:	e8 7c ee ff ff       	callq  2340 <_ZNSolsEm@plt>
    34c4:	48 89 c2             	mov    %rax,%rdx
    34c7:	48 8d 05 8a 2b 00 00 	lea    0x2b8a(%rip),%rax        # 6058 <_ZN6__pstl9execution2v1L5unseqE+0x4d>
    34ce:	48 89 c6             	mov    %rax,%rsi
    34d1:	48 89 d7             	mov    %rdx,%rdi
    34d4:	e8 67 ef ff ff       	callq  2440 <_ZStlsISt11char_traitsIcEERSt13basic_ostreamIcT_ES5_PKc@plt>
    34d9:	48 89 c2             	mov    %rax,%rdx
    34dc:	48 8b 85 a8 fd ff ff 	mov    -0x258(%rbp),%rax
    34e3:	48 8b 40 08          	mov    0x8(%rax),%rax
    34e7:	48 89 c6             	mov    %rax,%rsi
    34ea:	48 89 d7             	mov    %rdx,%rdi
    34ed:	e8 4e ee ff ff       	callq  2340 <_ZNSolsEm@plt>
    34f2:	48 8b 15 d7 6a 00 00 	mov    0x6ad7(%rip),%rdx        # 9fd0 <_ZSt4endlIcSt11char_traitsIcEERSt13basic_ostreamIT_T0_ES6_@GLIBCXX_3.4>
    34f9:	48 89 d6             	mov    %rdx,%rsi
    34fc:	48 89 c7             	mov    %rax,%rdi
    34ff:	e8 6c ef ff ff       	callq  2470 <_ZNSolsEPFRSoS_E@plt>
    3504:	48 8d 85 c0 fd ff ff 	lea    -0x240(%rbp),%rax
    350b:	48 89 c7             	mov    %rax,%rdi
    350e:	e8 dd fc ff ff       	callq  31f0 <_ZNSt6vectorIjSaIjEED1Ev>
    3513:	48 8d 85 e0 fd ff ff 	lea    -0x220(%rbp),%rax
    351a:	48 89 c7             	mov    %rax,%rdi
    351d:	e8 2e ee ff ff       	callq  2350 <_ZNSt14basic_ifstreamIcSt11char_traitsIcEED1Ev@plt>
    3522:	48 8b 45 e8          	mov    -0x18(%rbp),%rax
    3526:	64 48 2b 04 25 28 00 	sub    %fs:0x28,%rax
    352d:	00 00 
    352f:	74 37                	je     3568 <_ZN9DataTableIjE7fromCSVERKNSt7__cxx1112basic_stringIcSt11char_traitsIcESaIcEEE+0x202>
    3531:	eb 30                	jmp    3563 <_ZN9DataTableIjE7fromCSVERKNSt7__cxx1112basic_stringIcSt11char_traitsIcESaIcEEE+0x1fd>
    3533:	f3 0f 1e fa          	endbr64 
    3537:	48 89 c3             	mov    %rax,%rbx
    353a:	48 8d 85 c0 fd ff ff 	lea    -0x240(%rbp),%rax
    3541:	48 89 c7             	mov    %rax,%rdi
    3544:	e8 a7 fc ff ff       	callq  31f0 <_ZNSt6vectorIjSaIjEED1Ev>
    3549:	48 8d 85 e0 fd ff ff 	lea    -0x220(%rbp),%rax
    3550:	48 89 c7             	mov    %rax,%rdi
    3553:	e8 f8 ed ff ff       	callq  2350 <_ZNSt14basic_ifstreamIcSt11char_traitsIcEED1Ev@plt>
    3558:	48 89 d8             	mov    %rbx,%rax
    355b:	48 89 c7             	mov    %rax,%rdi
    355e:	e8 fd ef ff ff       	callq  2560 <_Unwind_Resume@plt>
    3563:	e8 58 ef ff ff       	callq  24c0 <__stack_chk_fail@plt>
    3568:	48 8b 5d f8          	mov    -0x8(%rbp),%rbx
    356c:	c9                   	leaveq 
    356d:	c3                   	retq   

000000000000356e <_ZNSt6vectorIS_IjSaIjEESaIS1_EE5beginEv>:
    356e:	f3 0f 1e fa          	endbr64 
    3572:	55                   	push   %rbp
    3573:	48 89 e5             	mov    %rsp,%rbp
    3576:	48 83 ec 20          	sub    $0x20,%rsp
    357a:	48 89 7d e8          	mov    %rdi,-0x18(%rbp)
    357e:	64 48 8b 04 25 28 00 	mov    %fs:0x28,%rax
    3585:	00 00 
    3587:	48 89 45 f8          	mov    %rax,-0x8(%rbp)
    358b:	31 c0                	xor    %eax,%eax
    358d:	48 8b 55 e8          	mov    -0x18(%rbp),%rdx
    3591:	48 8d 45 f0          	lea    -0x10(%rbp),%rax
    3595:	48 89 d6             	mov    %rdx,%rsi
    3598:	48 89 c7             	mov    %rax,%rdi
    359b:	e8 54 07 00 00       	callq  3cf4 <_ZN9__gnu_cxx17__normal_iteratorIPSt6vectorIjSaIjEES1_IS3_SaIS3_EEEC1ERKS4_>
    35a0:	48 8b 45 f0          	mov    -0x10(%rbp),%rax
    35a4:	48 8b 55 f8          	mov    -0x8(%rbp),%rdx
    35a8:	64 48 2b 14 25 28 00 	sub    %fs:0x28,%rdx
    35af:	00 00 
    35b1:	74 05                	je     35b8 <_ZNSt6vectorIS_IjSaIjEESaIS1_EE5beginEv+0x4a>
    35b3:	e8 08 ef ff ff       	callq  24c0 <__stack_chk_fail@plt>
    35b8:	c9                   	leaveq 
    35b9:	c3                   	retq   

00000000000035ba <_ZNSt6vectorIS_IjSaIjEESaIS1_EE3endEv>:
    35ba:	f3 0f 1e fa          	endbr64 
    35be:	55                   	push   %rbp
    35bf:	48 89 e5             	mov    %rsp,%rbp
    35c2:	48 83 ec 20          	sub    $0x20,%rsp
    35c6:	48 89 7d e8          	mov    %rdi,-0x18(%rbp)
    35ca:	64 48 8b 04 25 28 00 	mov    %fs:0x28,%rax
    35d1:	00 00 
    35d3:	48 89 45 f8          	mov    %rax,-0x8(%rbp)
    35d7:	31 c0                	xor    %eax,%eax
    35d9:	48 8b 45 e8          	mov    -0x18(%rbp),%rax
    35dd:	48 8d 50 08          	lea    0x8(%rax),%rdx
    35e1:	48 8d 45 f0          	lea    -0x10(%rbp),%rax
    35e5:	48 89 d6             	mov    %rdx,%rsi
    35e8:	48 89 c7             	mov    %rax,%rdi
    35eb:	e8 04 07 00 00       	callq  3cf4 <_ZN9__gnu_cxx17__normal_iteratorIPSt6vectorIjSaIjEES1_IS3_SaIS3_EEEC1ERKS4_>
    35f0:	48 8b 45 f0          	mov    -0x10(%rbp),%rax
    35f4:	48 8b 55 f8          	mov    -0x8(%rbp),%rdx
    35f8:	64 48 2b 14 25 28 00 	sub    %fs:0x28,%rdx
    35ff:	00 00 
    3601:	74 05                	je     3608 <_ZNSt6vectorIS_IjSaIjEESaIS1_EE3endEv+0x4e>
    3603:	e8 b8 ee ff ff       	callq  24c0 <__stack_chk_fail@plt>
    3608:	c9                   	leaveq 
    3609:	c3                   	retq   

000000000000360a <_ZN9__gnu_cxxneIPSt6vectorIjSaIjEES1_IS3_SaIS3_EEEEbRKNS_17__normal_iteratorIT_T0_EESC_>:
    360a:	f3 0f 1e fa          	endbr64 
    360e:	55                   	push   %rbp
    360f:	48 89 e5             	mov    %rsp,%rbp
    3612:	53                   	push   %rbx
    3613:	48 83 ec 18          	sub    $0x18,%rsp
    3617:	48 89 7d e8          	mov    %rdi,-0x18(%rbp)
    361b:	48 89 75 e0          	mov    %rsi,-0x20(%rbp)
    361f:	48 8b 45 e8          	mov    -0x18(%rbp),%rax
    3623:	48 89 c7             	mov    %rax,%rdi
    3626:	e8 eb 06 00 00       	callq  3d16 <_ZNK9__gnu_cxx17__normal_iteratorIPSt6vectorIjSaIjEES1_IS3_SaIS3_EEE4baseEv>
    362b:	48 8b 18             	mov    (%rax),%rbx
    362e:	48 8b 45 e0          	mov    -0x20(%rbp),%rax
    3632:	48 89 c7             	mov    %rax,%rdi
    3635:	e8 dc 06 00 00       	callq  3d16 <_ZNK9__gnu_cxx17__normal_iteratorIPSt6vectorIjSaIjEES1_IS3_SaIS3_EEE4baseEv>
    363a:	48 8b 00             	mov    (%rax),%rax
    363d:	48 39 c3             	cmp    %rax,%rbx
    3640:	0f 95 c0             	setne  %al
    3643:	48 8b 5d f8          	mov    -0x8(%rbp),%rbx
    3647:	c9                   	leaveq 
    3648:	c3                   	retq   
    3649:	90                   	nop

000000000000364a <_ZN9__gnu_cxx17__normal_iteratorIPSt6vectorIjSaIjEES1_IS3_SaIS3_EEEppEv>:
    364a:	f3 0f 1e fa          	endbr64 
    364e:	55                   	push   %rbp
    364f:	48 89 e5             	mov    %rsp,%rbp
    3652:	48 89 7d f8          	mov    %rdi,-0x8(%rbp)
    3656:	48 8b 45 f8          	mov    -0x8(%rbp),%rax
    365a:	48 8b 00             	mov    (%rax),%rax
    365d:	48 8d 50 18          	lea    0x18(%rax),%rdx
    3661:	48 8b 45 f8          	mov    -0x8(%rbp),%rax
    3665:	48 89 10             	mov    %rdx,(%rax)
    3668:	48 8b 45 f8          	mov    -0x8(%rbp),%rax
    366c:	5d                   	pop    %rbp
    366d:	c3                   	retq   

000000000000366e <_ZNK9__gnu_cxx17__normal_iteratorIPSt6vectorIjSaIjEES1_IS3_SaIS3_EEEdeEv>:
    366e:	f3 0f 1e fa          	endbr64 
    3672:	55                   	push   %rbp
    3673:	48 89 e5             	mov    %rsp,%rbp
    3676:	48 89 7d f8          	mov    %rdi,-0x8(%rbp)
    367a:	48 8b 45 f8          	mov    -0x8(%rbp),%rax
    367e:	48 8b 00             	mov    (%rax),%rax
    3681:	5d                   	pop    %rbp
    3682:	c3                   	retq   
    3683:	90                   	nop

0000000000003684 <_ZNSt6vectorIjSaIjEEC1ERKS1_>:
    3684:	f3 0f 1e fa          	endbr64 
    3688:	55                   	push   %rbp
    3689:	48 89 e5             	mov    %rsp,%rbp
    368c:	41 55                	push   %r13
    368e:	41 54                	push   %r12
    3690:	53                   	push   %rbx
    3691:	48 83 ec 28          	sub    $0x28,%rsp
    3695:	48 89 7d c8          	mov    %rdi,-0x38(%rbp)
    3699:	48 89 75 c0          	mov    %rsi,-0x40(%rbp)
    369d:	64 48 8b 04 25 28 00 	mov    %fs:0x28,%rax
    36a4:	00 00 
    36a6:	48 89 45 d8          	mov    %rax,-0x28(%rbp)
    36aa:	31 c0                	xor    %eax,%eax
    36ac:	48 8b 5d c8          	mov    -0x38(%rbp),%rbx
    36b0:	48 8b 45 c0          	mov    -0x40(%rbp),%rax
    36b4:	48 89 c7             	mov    %rax,%rdi
    36b7:	e8 bc 06 00 00       	callq  3d78 <_ZNKSt12_Vector_baseIjSaIjEE19_M_get_Tp_allocatorEv>
    36bc:	48 89 c2             	mov    %rax,%rdx
    36bf:	48 8d 45 d7          	lea    -0x29(%rbp),%rax
    36c3:	48 89 d6             	mov    %rdx,%rsi
    36c6:	48 89 c7             	mov    %rax,%rdi
    36c9:	e8 5a 06 00 00       	callq  3d28 <_ZN9__gnu_cxx14__alloc_traitsISaIjEjE17_S_select_on_copyERKS1_>
    36ce:	48 8b 45 c0          	mov    -0x40(%rbp),%rax
    36d2:	48 89 c7             	mov    %rax,%rdi
    36d5:	e8 5e fb ff ff       	callq  3238 <_ZNKSt6vectorIjSaIjEE4sizeEv>
    36da:	48 89 c1             	mov    %rax,%rcx
    36dd:	48 8d 45 d7          	lea    -0x29(%rbp),%rax
    36e1:	48 89 c2             	mov    %rax,%rdx
    36e4:	48 89 ce             	mov    %rcx,%rsi
    36e7:	48 89 df             	mov    %rbx,%rdi
    36ea:	e8 9b 06 00 00       	callq  3d8a <_ZNSt12_Vector_baseIjSaIjEEC1EmRKS0_>
    36ef:	48 8d 45 d7          	lea    -0x29(%rbp),%rax
    36f3:	48 89 c7             	mov    %rax,%rdi
    36f6:	e8 83 fa ff ff       	callq  317e <_ZNSaIjED1Ev>
    36fb:	48 8b 45 c8          	mov    -0x38(%rbp),%rax
    36ff:	48 89 c7             	mov    %rax,%rdi
    3702:	e8 2f 03 00 00       	callq  3a36 <_ZNSt12_Vector_baseIjSaIjEE19_M_get_Tp_allocatorEv>
    3707:	49 89 c5             	mov    %rax,%r13
    370a:	48 8b 45 c8          	mov    -0x38(%rbp),%rax
    370e:	48 8b 18             	mov    (%rax),%rbx
    3711:	48 8b 45 c0          	mov    -0x40(%rbp),%rax
    3715:	48 89 c7             	mov    %rax,%rdi
    3718:	e8 1f 07 00 00       	callq  3e3c <_ZNKSt6vectorIjSaIjEE3endEv>
    371d:	49 89 c4             	mov    %rax,%r12
    3720:	48 8b 45 c0          	mov    -0x40(%rbp),%rax
    3724:	48 89 c7             	mov    %rax,%rdi
    3727:	e8 c4 06 00 00       	callq  3df0 <_ZNKSt6vectorIjSaIjEE5beginEv>
    372c:	4c 89 e9             	mov    %r13,%rcx
    372f:	48 89 da             	mov    %rbx,%rdx
    3732:	4c 89 e6             	mov    %r12,%rsi
    3735:	48 89 c7             	mov    %rax,%rdi
    3738:	e8 4f 07 00 00       	callq  3e8c <_ZSt22__uninitialized_copy_aIN9__gnu_cxx17__normal_iteratorIPKjSt6vectorIjSaIjEEEEPjjET0_T_SA_S9_RSaIT1_E>
    373d:	48 8b 55 c8          	mov    -0x38(%rbp),%rdx
    3741:	48 89 42 08          	mov    %rax,0x8(%rdx)
    3745:	90                   	nop
    3746:	48 8b 45 d8          	mov    -0x28(%rbp),%rax
    374a:	64 48 2b 04 25 28 00 	sub    %fs:0x28,%rax
    3751:	00 00 
    3753:	74 43                	je     3798 <_ZNSt6vectorIjSaIjEEC1ERKS1_+0x114>
    3755:	eb 3c                	jmp    3793 <_ZNSt6vectorIjSaIjEEC1ERKS1_+0x10f>
    3757:	f3 0f 1e fa          	endbr64 
    375b:	48 89 c3             	mov    %rax,%rbx
    375e:	48 8d 45 d7          	lea    -0x29(%rbp),%rax
    3762:	48 89 c7             	mov    %rax,%rdi
    3765:	e8 14 fa ff ff       	callq  317e <_ZNSaIjED1Ev>
    376a:	48 89 d8             	mov    %rbx,%rax
    376d:	48 89 c7             	mov    %rax,%rdi
    3770:	e8 eb ed ff ff       	callq  2560 <_Unwind_Resume@plt>
    3775:	f3 0f 1e fa          	endbr64 
    3779:	48 89 c3             	mov    %rax,%rbx
    377c:	48 8b 45 c8          	mov    -0x38(%rbp),%rax
    3780:	48 89 c7             	mov    %rax,%rdi
    3783:	e8 16 fa ff ff       	callq  319e <_ZNSt12_Vector_baseIjSaIjEED1Ev>
    3788:	48 89 d8             	mov    %rbx,%rax
    378b:	48 89 c7             	mov    %rax,%rdi
    378e:	e8 cd ed ff ff       	callq  2560 <_Unwind_Resume@plt>
    3793:	e8 28 ed ff ff       	callq  24c0 <__stack_chk_fail@plt>
    3798:	48 83 c4 28          	add    $0x28,%rsp
    379c:	5b                   	pop    %rbx
    379d:	41 5c                	pop    %r12
    379f:	41 5d                	pop    %r13
    37a1:	5d                   	pop    %rbp
    37a2:	c3                   	retq   
    37a3:	90                   	nop

00000000000037a4 <_ZNSt6vectorIjSaIjEE5beginEv>:
    37a4:	f3 0f 1e fa          	endbr64 
    37a8:	55                   	push   %rbp
    37a9:	48 89 e5             	mov    %rsp,%rbp
    37ac:	48 83 ec 20          	sub    $0x20,%rsp
    37b0:	48 89 7d e8          	mov    %rdi,-0x18(%rbp)
    37b4:	64 48 8b 04 25 28 00 	mov    %fs:0x28,%rax
    37bb:	00 00 
    37bd:	48 89 45 f8          	mov    %rax,-0x8(%rbp)
    37c1:	31 c0                	xor    %eax,%eax
    37c3:	48 8b 55 e8          	mov    -0x18(%rbp),%rdx
    37c7:	48 8d 45 f0          	lea    -0x10(%rbp),%rax
    37cb:	48 89 d6             	mov    %rdx,%rsi
    37ce:	48 89 c7             	mov    %rax,%rdi
    37d1:	e8 ec 06 00 00       	callq  3ec2 <_ZN9__gnu_cxx17__normal_iteratorIPjSt6vectorIjSaIjEEEC1ERKS1_>
    37d6:	48 8b 45 f0          	mov    -0x10(%rbp),%rax
    37da:	48 8b 55 f8          	mov    -0x8(%rbp),%rdx
    37de:	64 48 2b 14 25 28 00 	sub    %fs:0x28,%rdx
    37e5:	00 00 
    37e7:	74 05                	je     37ee <_ZNSt6vectorIjSaIjEE5beginEv+0x4a>
    37e9:	e8 d2 ec ff ff       	callq  24c0 <__stack_chk_fail@plt>
    37ee:	c9                   	leaveq 
    37ef:	c3                   	retq   

00000000000037f0 <_ZNSt6vectorIjSaIjEE3endEv>:
    37f0:	f3 0f 1e fa          	endbr64 
    37f4:	55                   	push   %rbp
    37f5:	48 89 e5             	mov    %rsp,%rbp
    37f8:	48 83 ec 20          	sub    $0x20,%rsp
    37fc:	48 89 7d e8          	mov    %rdi,-0x18(%rbp)
    3800:	64 48 8b 04 25 28 00 	mov    %fs:0x28,%rax
    3807:	00 00 
    3809:	48 89 45 f8          	mov    %rax,-0x8(%rbp)
    380d:	31 c0                	xor    %eax,%eax
    380f:	48 8b 45 e8          	mov    -0x18(%rbp),%rax
    3813:	48 8d 50 08          	lea    0x8(%rax),%rdx
    3817:	48 8d 45 f0          	lea    -0x10(%rbp),%rax
    381b:	48 89 d6             	mov    %rdx,%rsi
    381e:	48 89 c7             	mov    %rax,%rdi
    3821:	e8 9c 06 00 00       	callq  3ec2 <_ZN9__gnu_cxx17__normal_iteratorIPjSt6vectorIjSaIjEEEC1ERKS1_>
    3826:	48 8b 45 f0          	mov    -0x10(%rbp),%rax
    382a:	48 8b 55 f8          	mov    -0x8(%rbp),%rdx
    382e:	64 48 2b 14 25 28 00 	sub    %fs:0x28,%rdx
    3835:	00 00 
    3837:	74 05                	je     383e <_ZNSt6vectorIjSaIjEE3endEv+0x4e>
    3839:	e8 82 ec ff ff       	callq  24c0 <__stack_chk_fail@plt>
    383e:	c9                   	leaveq 
    383f:	c3                   	retq   

0000000000003840 <_ZN9__gnu_cxxneIPjSt6vectorIjSaIjEEEEbRKNS_17__normal_iteratorIT_T0_EESA_>:
    3840:	f3 0f 1e fa          	endbr64 
    3844:	55                   	push   %rbp
    3845:	48 89 e5             	mov    %rsp,%rbp
    3848:	53                   	push   %rbx
    3849:	48 83 ec 18          	sub    $0x18,%rsp
    384d:	48 89 7d e8          	mov    %rdi,-0x18(%rbp)
    3851:	48 89 75 e0          	mov    %rsi,-0x20(%rbp)
    3855:	48 8b 45 e8          	mov    -0x18(%rbp),%rax
    3859:	48 89 c7             	mov    %rax,%rdi
    385c:	e8 83 06 00 00       	callq  3ee4 <_ZNK9__gnu_cxx17__normal_iteratorIPjSt6vectorIjSaIjEEE4baseEv>
    3861:	48 8b 18             	mov    (%rax),%rbx
    3864:	48 8b 45 e0          	mov    -0x20(%rbp),%rax
    3868:	48 89 c7             	mov    %rax,%rdi
    386b:	e8 74 06 00 00       	callq  3ee4 <_ZNK9__gnu_cxx17__normal_iteratorIPjSt6vectorIjSaIjEEE4baseEv>
    3870:	48 8b 00             	mov    (%rax),%rax
    3873:	48 39 c3             	cmp    %rax,%rbx
    3876:	0f 95 c0             	setne  %al
    3879:	48 8b 5d f8          	mov    -0x8(%rbp),%rbx
    387d:	c9                   	leaveq 
    387e:	c3                   	retq   
    387f:	90                   	nop

0000000000003880 <_ZN9__gnu_cxx17__normal_iteratorIPjSt6vectorIjSaIjEEEppEv>:
    3880:	f3 0f 1e fa          	endbr64 
    3884:	55                   	push   %rbp
    3885:	48 89 e5             	mov    %rsp,%rbp
    3888:	48 89 7d f8          	mov    %rdi,-0x8(%rbp)
    388c:	48 8b 45 f8          	mov    -0x8(%rbp),%rax
    3890:	48 8b 00             	mov    (%rax),%rax
    3893:	48 8d 50 04          	lea    0x4(%rax),%rdx
    3897:	48 8b 45 f8          	mov    -0x8(%rbp),%rax
    389b:	48 89 10             	mov    %rdx,(%rax)
    389e:	48 8b 45 f8          	mov    -0x8(%rbp),%rax
    38a2:	5d                   	pop    %rbp
    38a3:	c3                   	retq   

00000000000038a4 <_ZNK9__gnu_cxx17__normal_iteratorIPjSt6vectorIjSaIjEEEdeEv>:
    38a4:	f3 0f 1e fa          	endbr64 
    38a8:	55                   	push   %rbp
    38a9:	48 89 e5             	mov    %rsp,%rbp
    38ac:	48 89 7d f8          	mov    %rdi,-0x8(%rbp)
    38b0:	48 8b 45 f8          	mov    -0x8(%rbp),%rax
    38b4:	48 8b 00             	mov    (%rax),%rax
    38b7:	5d                   	pop    %rbp
    38b8:	c3                   	retq   
    38b9:	90                   	nop

00000000000038ba <_ZNSt24uniform_int_distributionIjEclISt26linear_congruential_engineImLm16807ELm0ELm2147483647EEEEjRT_>:
    38ba:	f3 0f 1e fa          	endbr64 
    38be:	55                   	push   %rbp
    38bf:	48 89 e5             	mov    %rsp,%rbp
    38c2:	48 83 ec 10          	sub    $0x10,%rsp
    38c6:	48 89 7d f8          	mov    %rdi,-0x8(%rbp)
    38ca:	48 89 75 f0          	mov    %rsi,-0x10(%rbp)
    38ce:	48 8b 55 f8          	mov    -0x8(%rbp),%rdx
    38d2:	48 8b 4d f0          	mov    -0x10(%rbp),%rcx
    38d6:	48 8b 45 f8          	mov    -0x8(%rbp),%rax
    38da:	48 89 ce             	mov    %rcx,%rsi
    38dd:	48 89 c7             	mov    %rax,%rdi
    38e0:	e8 11 06 00 00       	callq  3ef6 <_ZNSt24uniform_int_distributionIjEclISt26linear_congruential_engineImLm16807ELm0ELm2147483647EEEEjRT_RKNS0_10param_typeE>
    38e5:	c9                   	leaveq 
    38e6:	c3                   	retq   

00000000000038e7 <_ZNSt6chrono20__duration_cast_implINS_8durationIlSt5ratioILl1ELl1000EEEES2_ILl1ELl1000000EElLb1ELb0EE6__castIlS2_ILl1ELl1000000000EEEES4_RKNS1_IT_T0_EE>:
    38e7:	f3 0f 1e fa          	endbr64 
    38eb:	55                   	push   %rbp
    38ec:	48 89 e5             	mov    %rsp,%rbp
    38ef:	48 83 ec 30          	sub    $0x30,%rsp
    38f3:	48 89 7d d8          	mov    %rdi,-0x28(%rbp)
    38f7:	64 48 8b 04 25 28 00 	mov    %fs:0x28,%rax
    38fe:	00 00 
    3900:	48 89 45 f8          	mov    %rax,-0x8(%rbp)
    3904:	31 c0                	xor    %eax,%eax
    3906:	48 8b 45 d8          	mov    -0x28(%rbp),%rax
    390a:	48 89 c7             	mov    %rax,%rdi
    390d:	e8 12 f5 ff ff       	callq  2e24 <_ZNKSt6chrono8durationIlSt5ratioILl1ELl1000000000EEE5countEv>
    3912:	48 89 c1             	mov    %rax,%rcx
    3915:	48 ba db 34 b6 d7 82 	movabs $0x431bde82d7b634db,%rdx
    391c:	de 1b 43 
    391f:	48 89 c8             	mov    %rcx,%rax
    3922:	48 f7 ea             	imul   %rdx
    3925:	48 89 d0             	mov    %rdx,%rax
    3928:	48 c1 f8 12          	sar    $0x12,%rax
    392c:	48 c1 f9 3f          	sar    $0x3f,%rcx
    3930:	48 89 ca             	mov    %rcx,%rdx
    3933:	48 29 d0             	sub    %rdx,%rax
    3936:	48 89 45 e8          	mov    %rax,-0x18(%rbp)
    393a:	48 8d 55 e8          	lea    -0x18(%rbp),%rdx
    393e:	48 8d 45 f0          	lea    -0x10(%rbp),%rax
    3942:	48 89 d6             	mov    %rdx,%rsi
    3945:	48 89 c7             	mov    %rax,%rdi
    3948:	e8 71 07 00 00       	callq  40be <_ZNSt6chrono8durationIlSt5ratioILl1ELl1000EEEC1IlvEERKT_>
    394d:	48 8b 45 f0          	mov    -0x10(%rbp),%rax
    3951:	48 8b 55 f8          	mov    -0x8(%rbp),%rdx
    3955:	64 48 2b 14 25 28 00 	sub    %fs:0x28,%rdx
    395c:	00 00 
    395e:	74 05                	je     3965 <_ZNSt6chrono20__duration_cast_implINS_8durationIlSt5ratioILl1ELl1000EEEES2_ILl1ELl1000000EElLb1ELb0EE6__castIlS2_ILl1ELl1000000000EEEES4_RKNS1_IT_T0_EE+0x7e>
    3960:	e8 5b eb ff ff       	callq  24c0 <__stack_chk_fail@plt>
    3965:	c9                   	leaveq 
    3966:	c3                   	retq   
    3967:	90                   	nop

0000000000003968 <_ZNSt7__cxx1112basic_stringIcSt11char_traitsIcESaIcEE12_M_constructIPKcEEvT_S8_>:
    3968:	f3 0f 1e fa          	endbr64 
    396c:	55                   	push   %rbp
    396d:	48 89 e5             	mov    %rsp,%rbp
    3970:	48 83 ec 20          	sub    $0x20,%rsp
    3974:	48 89 7d f8          	mov    %rdi,-0x8(%rbp)
    3978:	48 89 75 f0          	mov    %rsi,-0x10(%rbp)
    397c:	48 89 55 e8          	mov    %rdx,-0x18(%rbp)
    3980:	48 8b 55 e8          	mov    -0x18(%rbp),%rdx
    3984:	48 8b 4d f0          	mov    -0x10(%rbp),%rcx
    3988:	48 8b 45 f8          	mov    -0x8(%rbp),%rax
    398c:	48 89 ce             	mov    %rcx,%rsi
    398f:	48 89 c7             	mov    %rax,%rdi
    3992:	e8 49 07 00 00       	callq  40e0 <_ZNSt7__cxx1112basic_stringIcSt11char_traitsIcESaIcEE16_M_construct_auxIPKcEEvT_S8_St12__false_type>
    3997:	90                   	nop
    3998:	c9                   	leaveq 
    3999:	c3                   	retq   

000000000000399a <_ZNSaIjEC1Ev>:
    399a:	f3 0f 1e fa          	endbr64 
    399e:	55                   	push   %rbp
    399f:	48 89 e5             	mov    %rsp,%rbp
    39a2:	48 83 ec 10          	sub    $0x10,%rsp
    39a6:	48 89 7d f8          	mov    %rdi,-0x8(%rbp)
    39aa:	48 8b 45 f8          	mov    -0x8(%rbp),%rax
    39ae:	48 89 c7             	mov    %rax,%rdi
    39b1:	e8 80 07 00 00       	callq  4136 <_ZN9__gnu_cxx13new_allocatorIjEC1Ev>
    39b6:	90                   	nop
    39b7:	c9                   	leaveq 
    39b8:	c3                   	retq   
    39b9:	90                   	nop

00000000000039ba <_ZNSt12_Vector_baseIjSaIjEE17_Vector_impl_dataC1Ev>:
    39ba:	f3 0f 1e fa          	endbr64 
    39be:	55                   	push   %rbp
    39bf:	48 89 e5             	mov    %rsp,%rbp
    39c2:	48 89 7d f8          	mov    %rdi,-0x8(%rbp)
    39c6:	48 8b 45 f8          	mov    -0x8(%rbp),%rax
    39ca:	48 c7 00 00 00 00 00 	movq   $0x0,(%rax)
    39d1:	48 8b 45 f8          	mov    -0x8(%rbp),%rax
    39d5:	48 c7 40 08 00 00 00 	movq   $0x0,0x8(%rax)
    39dc:	00 
    39dd:	48 8b 45 f8          	mov    -0x8(%rbp),%rax
    39e1:	48 c7 40 10 00 00 00 	movq   $0x0,0x10(%rax)
    39e8:	00 
    39e9:	90                   	nop
    39ea:	5d                   	pop    %rbp
    39eb:	c3                   	retq   

00000000000039ec <_ZN9__gnu_cxx13new_allocatorIjED1Ev>:
    39ec:	f3 0f 1e fa          	endbr64 
    39f0:	55                   	push   %rbp
    39f1:	48 89 e5             	mov    %rsp,%rbp
    39f4:	48 89 7d f8          	mov    %rdi,-0x8(%rbp)
    39f8:	90                   	nop
    39f9:	5d                   	pop    %rbp
    39fa:	c3                   	retq   
    39fb:	90                   	nop

00000000000039fc <_ZNSt12_Vector_baseIjSaIjEE13_M_deallocateEPjm>:
    39fc:	f3 0f 1e fa          	endbr64 
    3a00:	55                   	push   %rbp
    3a01:	48 89 e5             	mov    %rsp,%rbp
    3a04:	48 83 ec 20          	sub    $0x20,%rsp
    3a08:	48 89 7d f8          	mov    %rdi,-0x8(%rbp)
    3a0c:	48 89 75 f0          	mov    %rsi,-0x10(%rbp)
    3a10:	48 89 55 e8          	mov    %rdx,-0x18(%rbp)
    3a14:	48 83 7d f0 00       	cmpq   $0x0,-0x10(%rbp)
    3a19:	74 17                	je     3a32 <_ZNSt12_Vector_baseIjSaIjEE13_M_deallocateEPjm+0x36>
    3a1b:	48 8b 45 f8          	mov    -0x8(%rbp),%rax
    3a1f:	48 8b 55 e8          	mov    -0x18(%rbp),%rdx
    3a23:	48 8b 4d f0          	mov    -0x10(%rbp),%rcx
    3a27:	48 89 ce             	mov    %rcx,%rsi
    3a2a:	48 89 c7             	mov    %rax,%rdi
    3a2d:	e8 13 07 00 00       	callq  4145 <_ZNSt16allocator_traitsISaIjEE10deallocateERS0_Pjm>
    3a32:	90                   	nop
    3a33:	c9                   	leaveq 
    3a34:	c3                   	retq   
    3a35:	90                   	nop

0000000000003a36 <_ZNSt12_Vector_baseIjSaIjEE19_M_get_Tp_allocatorEv>:
    3a36:	f3 0f 1e fa          	endbr64 
    3a3a:	55                   	push   %rbp
    3a3b:	48 89 e5             	mov    %rsp,%rbp
    3a3e:	48 89 7d f8          	mov    %rdi,-0x8(%rbp)
    3a42:	48 8b 45 f8          	mov    -0x8(%rbp),%rax
    3a46:	5d                   	pop    %rbp
    3a47:	c3                   	retq   

0000000000003a48 <_ZSt8_DestroyIPjjEvT_S1_RSaIT0_E>:
    3a48:	f3 0f 1e fa          	endbr64 
    3a4c:	55                   	push   %rbp
    3a4d:	48 89 e5             	mov    %rsp,%rbp
    3a50:	48 83 ec 20          	sub    $0x20,%rsp
    3a54:	48 89 7d f8          	mov    %rdi,-0x8(%rbp)
    3a58:	48 89 75 f0          	mov    %rsi,-0x10(%rbp)
    3a5c:	48 89 55 e8          	mov    %rdx,-0x18(%rbp)
    3a60:	48 8b 55 f0          	mov    -0x10(%rbp),%rdx
    3a64:	48 8b 45 f8          	mov    -0x8(%rbp),%rax
    3a68:	48 89 d6             	mov    %rdx,%rsi
    3a6b:	48 89 c7             	mov    %rax,%rdi
    3a6e:	e8 04 07 00 00       	callq  4177 <_ZSt8_DestroyIPjEvT_S1_>
    3a73:	90                   	nop
    3a74:	c9                   	leaveq 
    3a75:	c3                   	retq   

0000000000003a76 <_ZNSt26linear_congruential_engineImLm16807ELm0ELm2147483647EEC1Em>:
    3a76:	f3 0f 1e fa          	endbr64 
    3a7a:	55                   	push   %rbp
    3a7b:	48 89 e5             	mov    %rsp,%rbp
    3a7e:	48 83 ec 10          	sub    $0x10,%rsp
    3a82:	48 89 7d f8          	mov    %rdi,-0x8(%rbp)
    3a86:	48 89 75 f0          	mov    %rsi,-0x10(%rbp)
    3a8a:	48 8b 55 f0          	mov    -0x10(%rbp),%rdx
    3a8e:	48 8b 45 f8          	mov    -0x8(%rbp),%rax
    3a92:	48 89 d6             	mov    %rdx,%rsi
    3a95:	48 89 c7             	mov    %rax,%rdi
    3a98:	e8 05 07 00 00       	callq  41a2 <_ZNSt26linear_congruential_engineImLm16807ELm0ELm2147483647EE4seedEm>
    3a9d:	90                   	nop
    3a9e:	c9                   	leaveq 
    3a9f:	c3                   	retq   

0000000000003aa0 <_ZNSt24uniform_int_distributionIjE10param_typeC1Ejj>:
    3aa0:	f3 0f 1e fa          	endbr64 
    3aa4:	55                   	push   %rbp
    3aa5:	48 89 e5             	mov    %rsp,%rbp
    3aa8:	48 89 7d f8          	mov    %rdi,-0x8(%rbp)
    3aac:	89 75 f4             	mov    %esi,-0xc(%rbp)
    3aaf:	89 55 f0             	mov    %edx,-0x10(%rbp)
    3ab2:	48 8b 45 f8          	mov    -0x8(%rbp),%rax
    3ab6:	8b 55 f4             	mov    -0xc(%rbp),%edx
    3ab9:	89 10                	mov    %edx,(%rax)
    3abb:	48 8b 45 f8          	mov    -0x8(%rbp),%rax
    3abf:	8b 55 f0             	mov    -0x10(%rbp),%edx
    3ac2:	89 50 04             	mov    %edx,0x4(%rax)
    3ac5:	90                   	nop
    3ac6:	5d                   	pop    %rbp
    3ac7:	c3                   	retq   

0000000000003ac8 <_ZNSt12_Vector_baseISt6vectorIjSaIjEESaIS2_EE12_Vector_implC1Ev>:
    3ac8:	f3 0f 1e fa          	endbr64 
    3acc:	55                   	push   %rbp
    3acd:	48 89 e5             	mov    %rsp,%rbp
    3ad0:	48 83 ec 10          	sub    $0x10,%rsp
    3ad4:	48 89 7d f8          	mov    %rdi,-0x8(%rbp)
    3ad8:	48 8b 45 f8          	mov    -0x8(%rbp),%rax
    3adc:	48 89 c7             	mov    %rax,%rdi
    3adf:	e8 26 07 00 00       	callq  420a <_ZNSaISt6vectorIjSaIjEEEC1Ev>
    3ae4:	48 8b 45 f8          	mov    -0x8(%rbp),%rax
    3ae8:	48 89 c7             	mov    %rax,%rdi
    3aeb:	e8 3a 07 00 00       	callq  422a <_ZNSt12_Vector_baseISt6vectorIjSaIjEESaIS2_EE17_Vector_impl_dataC1Ev>
    3af0:	90                   	nop
    3af1:	c9                   	leaveq 
    3af2:	c3                   	retq   

0000000000003af3 <_Z21getNextLineAndSplitAsIjEiRSiRSt6vectorIT_SaIS2_EE>:
    3af3:	f3 0f 1e fa          	endbr64 
    3af7:	55                   	push   %rbp
    3af8:	48 89 e5             	mov    %rsp,%rbp
    3afb:	53                   	push   %rbx
    3afc:	48 81 ec d8 01 00 00 	sub    $0x1d8,%rsp
    3b03:	48 89 bd 28 fe ff ff 	mov    %rdi,-0x1d8(%rbp)
    3b0a:	48 89 b5 20 fe ff ff 	mov    %rsi,-0x1e0(%rbp)
    3b11:	64 48 8b 04 25 28 00 	mov    %fs:0x28,%rax
    3b18:	00 00 
    3b1a:	48 89 45 e8          	mov    %rax,-0x18(%rbp)
    3b1e:	31 c0                	xor    %eax,%eax
    3b20:	48 8d 85 40 fe ff ff 	lea    -0x1c0(%rbp),%rax
    3b27:	48 89 c7             	mov    %rax,%rdi
    3b2a:	e8 c1 e9 ff ff       	callq  24f0 <_ZNSt7__cxx1112basic_stringIcSt11char_traitsIcESaIcEEC1Ev@plt>
    3b2f:	48 8d 95 40 fe ff ff 	lea    -0x1c0(%rbp),%rdx
    3b36:	48 8b 85 28 fe ff ff 	mov    -0x1d8(%rbp),%rax
    3b3d:	48 89 d6             	mov    %rdx,%rsi
    3b40:	48 89 c7             	mov    %rax,%rdi
    3b43:	e8 e8 e7 ff ff       	callq  2330 <_ZSt7getlineIcSt11char_traitsIcESaIcEERSt13basic_istreamIT_T0_ES7_RNSt7__cxx1112basic_stringIS4_S5_T1_EE@plt>
    3b48:	48 8b 10             	mov    (%rax),%rdx
    3b4b:	48 83 ea 18          	sub    $0x18,%rdx
    3b4f:	48 8b 12             	mov    (%rdx),%rdx
    3b52:	48 01 d0             	add    %rdx,%rax
    3b55:	48 89 c7             	mov    %rax,%rdi
    3b58:	e8 33 e8 ff ff       	callq  2390 <_ZNKSt9basic_iosIcSt11char_traitsIcEEntEv@plt>
    3b5d:	84 c0                	test   %al,%al
    3b5f:	74 07                	je     3b68 <_Z21getNextLineAndSplitAsIjEiRSiRSt6vectorIT_SaIS2_EE+0x75>
    3b61:	bb 00 00 00 00       	mov    $0x0,%ebx
    3b66:	eb 7b                	jmp    3be3 <_Z21getNextLineAndSplitAsIjEiRSiRSt6vectorIT_SaIS2_EE+0xf0>
    3b68:	be 08 00 00 00       	mov    $0x8,%esi
    3b6d:	bf 10 00 00 00       	mov    $0x10,%edi
    3b72:	e8 96 f2 ff ff       	callq  2e0d <_ZStorSt13_Ios_OpenmodeS_>
    3b77:	89 c2                	mov    %eax,%edx
    3b79:	48 8d 8d 40 fe ff ff 	lea    -0x1c0(%rbp),%rcx
    3b80:	48 8d 85 60 fe ff ff 	lea    -0x1a0(%rbp),%rax
    3b87:	48 89 ce             	mov    %rcx,%rsi
    3b8a:	48 89 c7             	mov    %rax,%rdi
    3b8d:	e8 8e e9 ff ff       	callq  2520 <_ZNSt7__cxx1118basic_stringstreamIcSt11char_traitsIcESaIcEEC1ERKNS_12basic_stringIcS2_S3_EESt13_Ios_Openmode@plt>
    3b92:	eb 19                	jmp    3bad <_Z21getNextLineAndSplitAsIjEiRSiRSt6vectorIT_SaIS2_EE+0xba>
    3b94:	48 8d 95 3c fe ff ff 	lea    -0x1c4(%rbp),%rdx
    3b9b:	48 8b 85 20 fe ff ff 	mov    -0x1e0(%rbp),%rax
    3ba2:	48 89 d6             	mov    %rdx,%rsi
    3ba5:	48 89 c7             	mov    %rax,%rdi
    3ba8:	e8 0b 08 00 00       	callq  43b8 <_ZNSt6vectorIjSaIjEE9push_backERKj>
    3bad:	48 8d 95 3c fe ff ff 	lea    -0x1c4(%rbp),%rdx
    3bb4:	48 8d 85 60 fe ff ff 	lea    -0x1a0(%rbp),%rax
    3bbb:	48 89 d6             	mov    %rdx,%rsi
    3bbe:	48 89 c7             	mov    %rax,%rdi
    3bc1:	e8 cf 06 00 00       	callq  4295 <_Z10getline_asIjEiRSiRT_>
    3bc6:	85 c0                	test   %eax,%eax
    3bc8:	0f 95 c0             	setne  %al
    3bcb:	84 c0                	test   %al,%al
    3bcd:	75 c5                	jne    3b94 <_Z21getNextLineAndSplitAsIjEiRSiRSt6vectorIT_SaIS2_EE+0xa1>
    3bcf:	bb 01 00 00 00       	mov    $0x1,%ebx
    3bd4:	48 8d 85 60 fe ff ff 	lea    -0x1a0(%rbp),%rax
    3bdb:	48 89 c7             	mov    %rax,%rdi
    3bde:	e8 fd e7 ff ff       	callq  23e0 <_ZNSt7__cxx1118basic_stringstreamIcSt11char_traitsIcESaIcEED1Ev@plt>
    3be3:	48 8d 85 40 fe ff ff 	lea    -0x1c0(%rbp),%rax
    3bea:	48 89 c7             	mov    %rax,%rdi
    3bed:	e8 be e7 ff ff       	callq  23b0 <_ZNSt7__cxx1112basic_stringIcSt11char_traitsIcESaIcEED1Ev@plt>
    3bf2:	89 d8                	mov    %ebx,%eax
    3bf4:	48 8b 55 e8          	mov    -0x18(%rbp),%rdx
    3bf8:	64 48 2b 14 25 28 00 	sub    %fs:0x28,%rdx
    3bff:	00 00 
    3c01:	74 40                	je     3c43 <_Z21getNextLineAndSplitAsIjEiRSiRSt6vectorIT_SaIS2_EE+0x150>
    3c03:	eb 39                	jmp    3c3e <_Z21getNextLineAndSplitAsIjEiRSiRSt6vectorIT_SaIS2_EE+0x14b>
    3c05:	f3 0f 1e fa          	endbr64 
    3c09:	48 89 c3             	mov    %rax,%rbx
    3c0c:	48 8d 85 60 fe ff ff 	lea    -0x1a0(%rbp),%rax
    3c13:	48 89 c7             	mov    %rax,%rdi
    3c16:	e8 c5 e7 ff ff       	callq  23e0 <_ZNSt7__cxx1118basic_stringstreamIcSt11char_traitsIcESaIcEED1Ev@plt>
    3c1b:	eb 07                	jmp    3c24 <_Z21getNextLineAndSplitAsIjEiRSiRSt6vectorIT_SaIS2_EE+0x131>
    3c1d:	f3 0f 1e fa          	endbr64 
    3c21:	48 89 c3             	mov    %rax,%rbx
    3c24:	48 8d 85 40 fe ff ff 	lea    -0x1c0(%rbp),%rax
    3c2b:	48 89 c7             	mov    %rax,%rdi
    3c2e:	e8 7d e7 ff ff       	callq  23b0 <_ZNSt7__cxx1112basic_stringIcSt11char_traitsIcESaIcEED1Ev@plt>
    3c33:	48 89 d8             	mov    %rbx,%rax
    3c36:	48 89 c7             	mov    %rax,%rdi
    3c39:	e8 22 e9 ff ff       	callq  2560 <_Unwind_Resume@plt>
    3c3e:	e8 7d e8 ff ff       	callq  24c0 <__stack_chk_fail@plt>
    3c43:	48 8b 5d f8          	mov    -0x8(%rbp),%rbx
    3c47:	c9                   	leaveq 
    3c48:	c3                   	retq   
    3c49:	90                   	nop

0000000000003c4a <_ZNSt6vectorIS_IjSaIjEESaIS1_EE9push_backERKS1_>:
    3c4a:	f3 0f 1e fa          	endbr64 
    3c4e:	55                   	push   %rbp
    3c4f:	48 89 e5             	mov    %rsp,%rbp
    3c52:	48 83 ec 10          	sub    $0x10,%rsp
    3c56:	48 89 7d f8          	mov    %rdi,-0x8(%rbp)
    3c5a:	48 89 75 f0          	mov    %rsi,-0x10(%rbp)
    3c5e:	48 8b 45 f8          	mov    -0x8(%rbp),%rax
    3c62:	48 8b 50 08          	mov    0x8(%rax),%rdx
    3c66:	48 8b 45 f8          	mov    -0x8(%rbp),%rax
    3c6a:	48 8b 40 10          	mov    0x10(%rax),%rax
    3c6e:	48 39 c2             	cmp    %rax,%rdx
    3c71:	74 31                	je     3ca4 <_ZNSt6vectorIS_IjSaIjEESaIS1_EE9push_backERKS1_+0x5a>
    3c73:	48 8b 45 f8          	mov    -0x8(%rbp),%rax
    3c77:	48 8b 48 08          	mov    0x8(%rax),%rcx
    3c7b:	48 8b 45 f8          	mov    -0x8(%rbp),%rax
    3c7f:	48 8b 55 f0          	mov    -0x10(%rbp),%rdx
    3c83:	48 89 ce             	mov    %rcx,%rsi
    3c86:	48 89 c7             	mov    %rax,%rdi
    3c89:	e8 a9 07 00 00       	callq  4437 <_ZNSt16allocator_traitsISaISt6vectorIjSaIjEEEE9constructIS2_JRKS2_EEEvRS3_PT_DpOT0_>
    3c8e:	48 8b 45 f8          	mov    -0x8(%rbp),%rax
    3c92:	48 8b 40 08          	mov    0x8(%rax),%rax
    3c96:	48 8d 50 18          	lea    0x18(%rax),%rdx
    3c9a:	48 8b 45 f8          	mov    -0x8(%rbp),%rax
    3c9e:	48 89 50 08          	mov    %rdx,0x8(%rax)
    3ca2:	eb 22                	jmp    3cc6 <_ZNSt6vectorIS_IjSaIjEESaIS1_EE9push_backERKS1_+0x7c>
    3ca4:	48 8b 45 f8          	mov    -0x8(%rbp),%rax
    3ca8:	48 89 c7             	mov    %rax,%rdi
    3cab:	e8 0a f9 ff ff       	callq  35ba <_ZNSt6vectorIS_IjSaIjEESaIS1_EE3endEv>
    3cb0:	48 89 c1             	mov    %rax,%rcx
    3cb3:	48 8b 55 f0          	mov    -0x10(%rbp),%rdx
    3cb7:	48 8b 45 f8          	mov    -0x8(%rbp),%rax
    3cbb:	48 89 ce             	mov    %rcx,%rsi
    3cbe:	48 89 c7             	mov    %rax,%rdi
    3cc1:	e8 ae 07 00 00       	callq  4474 <_ZNSt6vectorIS_IjSaIjEESaIS1_EE17_M_realloc_insertIJRKS1_EEEvN9__gnu_cxx17__normal_iteratorIPS1_S3_EEDpOT_>
    3cc6:	90                   	nop
    3cc7:	c9                   	leaveq 
    3cc8:	c3                   	retq   
    3cc9:	90                   	nop

0000000000003cca <_ZNSt6vectorIjSaIjEE5clearEv>:
    3cca:	f3 0f 1e fa          	endbr64 
    3cce:	55                   	push   %rbp
    3ccf:	48 89 e5             	mov    %rsp,%rbp
    3cd2:	48 83 ec 10          	sub    $0x10,%rsp
    3cd6:	48 89 7d f8          	mov    %rdi,-0x8(%rbp)
    3cda:	48 8b 45 f8          	mov    -0x8(%rbp),%rax
    3cde:	48 8b 10             	mov    (%rax),%rdx
    3ce1:	48 8b 45 f8          	mov    -0x8(%rbp),%rax
    3ce5:	48 89 d6             	mov    %rdx,%rsi
    3ce8:	48 89 c7             	mov    %rax,%rdi
    3ceb:	e8 00 0a 00 00       	callq  46f0 <_ZNSt6vectorIjSaIjEE15_M_erase_at_endEPj>
    3cf0:	90                   	nop
    3cf1:	c9                   	leaveq 
    3cf2:	c3                   	retq   
    3cf3:	90                   	nop

0000000000003cf4 <_ZN9__gnu_cxx17__normal_iteratorIPSt6vectorIjSaIjEES1_IS3_SaIS3_EEEC1ERKS4_>:
    3cf4:	f3 0f 1e fa          	endbr64 
    3cf8:	55                   	push   %rbp
    3cf9:	48 89 e5             	mov    %rsp,%rbp
    3cfc:	48 89 7d f8          	mov    %rdi,-0x8(%rbp)
    3d00:	48 89 75 f0          	mov    %rsi,-0x10(%rbp)
    3d04:	48 8b 45 f0          	mov    -0x10(%rbp),%rax
    3d08:	48 8b 10             	mov    (%rax),%rdx
    3d0b:	48 8b 45 f8          	mov    -0x8(%rbp),%rax
    3d0f:	48 89 10             	mov    %rdx,(%rax)
    3d12:	90                   	nop
    3d13:	5d                   	pop    %rbp
    3d14:	c3                   	retq   
    3d15:	90                   	nop

0000000000003d16 <_ZNK9__gnu_cxx17__normal_iteratorIPSt6vectorIjSaIjEES1_IS3_SaIS3_EEE4baseEv>:
    3d16:	f3 0f 1e fa          	endbr64 
    3d1a:	55                   	push   %rbp
    3d1b:	48 89 e5             	mov    %rsp,%rbp
    3d1e:	48 89 7d f8          	mov    %rdi,-0x8(%rbp)
    3d22:	48 8b 45 f8          	mov    -0x8(%rbp),%rax
    3d26:	5d                   	pop    %rbp
    3d27:	c3                   	retq   

0000000000003d28 <_ZN9__gnu_cxx14__alloc_traitsISaIjEjE17_S_select_on_copyERKS1_>:
    3d28:	f3 0f 1e fa          	endbr64 
    3d2c:	55                   	push   %rbp
    3d2d:	48 89 e5             	mov    %rsp,%rbp
    3d30:	48 83 ec 20          	sub    $0x20,%rsp
    3d34:	48 89 7d e8          	mov    %rdi,-0x18(%rbp)
    3d38:	48 89 75 e0          	mov    %rsi,-0x20(%rbp)
    3d3c:	64 48 8b 04 25 28 00 	mov    %fs:0x28,%rax
    3d43:	00 00 
    3d45:	48 89 45 f8          	mov    %rax,-0x8(%rbp)
    3d49:	31 c0                	xor    %eax,%eax
    3d4b:	48 8b 45 e8          	mov    -0x18(%rbp),%rax
    3d4f:	48 8b 55 e0          	mov    -0x20(%rbp),%rdx
    3d53:	48 89 d6             	mov    %rdx,%rsi
    3d56:	48 89 c7             	mov    %rax,%rdi
    3d59:	e8 f6 09 00 00       	callq  4754 <_ZNSt16allocator_traitsISaIjEE37select_on_container_copy_constructionERKS0_>
    3d5e:	48 8b 45 f8          	mov    -0x8(%rbp),%rax
    3d62:	64 48 2b 04 25 28 00 	sub    %fs:0x28,%rax
    3d69:	00 00 
    3d6b:	74 05                	je     3d72 <_ZN9__gnu_cxx14__alloc_traitsISaIjEjE17_S_select_on_copyERKS1_+0x4a>
    3d6d:	e8 4e e7 ff ff       	callq  24c0 <__stack_chk_fail@plt>
    3d72:	48 8b 45 e8          	mov    -0x18(%rbp),%rax
    3d76:	c9                   	leaveq 
    3d77:	c3                   	retq   

0000000000003d78 <_ZNKSt12_Vector_baseIjSaIjEE19_M_get_Tp_allocatorEv>:
    3d78:	f3 0f 1e fa          	endbr64 
    3d7c:	55                   	push   %rbp
    3d7d:	48 89 e5             	mov    %rsp,%rbp
    3d80:	48 89 7d f8          	mov    %rdi,-0x8(%rbp)
    3d84:	48 8b 45 f8          	mov    -0x8(%rbp),%rax
    3d88:	5d                   	pop    %rbp
    3d89:	c3                   	retq   

0000000000003d8a <_ZNSt12_Vector_baseIjSaIjEEC1EmRKS0_>:
    3d8a:	f3 0f 1e fa          	endbr64 
    3d8e:	55                   	push   %rbp
    3d8f:	48 89 e5             	mov    %rsp,%rbp
    3d92:	53                   	push   %rbx
    3d93:	48 83 ec 28          	sub    $0x28,%rsp
    3d97:	48 89 7d e8          	mov    %rdi,-0x18(%rbp)
    3d9b:	48 89 75 e0          	mov    %rsi,-0x20(%rbp)
    3d9f:	48 89 55 d8          	mov    %rdx,-0x28(%rbp)
    3da3:	48 8b 45 e8          	mov    -0x18(%rbp),%rax
    3da7:	48 8b 55 d8          	mov    -0x28(%rbp),%rdx
    3dab:	48 89 d6             	mov    %rdx,%rsi
    3dae:	48 89 c7             	mov    %rax,%rdi
    3db1:	e8 cc 09 00 00       	callq  4782 <_ZNSt12_Vector_baseIjSaIjEE12_Vector_implC1ERKS0_>
    3db6:	48 8b 55 e0          	mov    -0x20(%rbp),%rdx
    3dba:	48 8b 45 e8          	mov    -0x18(%rbp),%rax
    3dbe:	48 89 d6             	mov    %rdx,%rsi
    3dc1:	48 89 c7             	mov    %rax,%rdi
    3dc4:	e8 ef 09 00 00       	callq  47b8 <_ZNSt12_Vector_baseIjSaIjEE17_M_create_storageEm>
    3dc9:	eb 1e                	jmp    3de9 <_ZNSt12_Vector_baseIjSaIjEEC1EmRKS0_+0x5f>
    3dcb:	f3 0f 1e fa          	endbr64 
    3dcf:	48 89 c3             	mov    %rax,%rbx
    3dd2:	48 8b 45 e8          	mov    -0x18(%rbp),%rax
    3dd6:	48 89 c7             	mov    %rax,%rdi
    3dd9:	e8 7e f0 ff ff       	callq  2e5c <_ZNSt12_Vector_baseIjSaIjEE12_Vector_implD1Ev>
    3dde:	48 89 d8             	mov    %rbx,%rax
    3de1:	48 89 c7             	mov    %rax,%rdi
    3de4:	e8 77 e7 ff ff       	callq  2560 <_Unwind_Resume@plt>
    3de9:	48 8b 5d f8          	mov    -0x8(%rbp),%rbx
    3ded:	c9                   	leaveq 
    3dee:	c3                   	retq   
    3def:	90                   	nop

0000000000003df0 <_ZNKSt6vectorIjSaIjEE5beginEv>:
    3df0:	f3 0f 1e fa          	endbr64 
    3df4:	55                   	push   %rbp
    3df5:	48 89 e5             	mov    %rsp,%rbp
    3df8:	48 83 ec 20          	sub    $0x20,%rsp
    3dfc:	48 89 7d e8          	mov    %rdi,-0x18(%rbp)
    3e00:	64 48 8b 04 25 28 00 	mov    %fs:0x28,%rax
    3e07:	00 00 
    3e09:	48 89 45 f8          	mov    %rax,-0x8(%rbp)
    3e0d:	31 c0                	xor    %eax,%eax
    3e0f:	48 8b 55 e8          	mov    -0x18(%rbp),%rdx
    3e13:	48 8d 45 f0          	lea    -0x10(%rbp),%rax
    3e17:	48 89 d6             	mov    %rdx,%rsi
    3e1a:	48 89 c7             	mov    %rax,%rdi
    3e1d:	e8 f0 09 00 00       	callq  4812 <_ZN9__gnu_cxx17__normal_iteratorIPKjSt6vectorIjSaIjEEEC1ERKS2_>
    3e22:	48 8b 45 f0          	mov    -0x10(%rbp),%rax
    3e26:	48 8b 55 f8          	mov    -0x8(%rbp),%rdx
    3e2a:	64 48 2b 14 25 28 00 	sub    %fs:0x28,%rdx
    3e31:	00 00 
    3e33:	74 05                	je     3e3a <_ZNKSt6vectorIjSaIjEE5beginEv+0x4a>
    3e35:	e8 86 e6 ff ff       	callq  24c0 <__stack_chk_fail@plt>
    3e3a:	c9                   	leaveq 
    3e3b:	c3                   	retq   

0000000000003e3c <_ZNKSt6vectorIjSaIjEE3endEv>:
    3e3c:	f3 0f 1e fa          	endbr64 
    3e40:	55                   	push   %rbp
    3e41:	48 89 e5             	mov    %rsp,%rbp
    3e44:	48 83 ec 20          	sub    $0x20,%rsp
    3e48:	48 89 7d e8          	mov    %rdi,-0x18(%rbp)
    3e4c:	64 48 8b 04 25 28 00 	mov    %fs:0x28,%rax
    3e53:	00 00 
    3e55:	48 89 45 f8          	mov    %rax,-0x8(%rbp)
    3e59:	31 c0                	xor    %eax,%eax
    3e5b:	48 8b 45 e8          	mov    -0x18(%rbp),%rax
    3e5f:	48 8d 50 08          	lea    0x8(%rax),%rdx
    3e63:	48 8d 45 f0          	lea    -0x10(%rbp),%rax
    3e67:	48 89 d6             	mov    %rdx,%rsi
    3e6a:	48 89 c7             	mov    %rax,%rdi
    3e6d:	e8 a0 09 00 00       	callq  4812 <_ZN9__gnu_cxx17__normal_iteratorIPKjSt6vectorIjSaIjEEEC1ERKS2_>
    3e72:	48 8b 45 f0          	mov    -0x10(%rbp),%rax
    3e76:	48 8b 55 f8          	mov    -0x8(%rbp),%rdx
    3e7a:	64 48 2b 14 25 28 00 	sub    %fs:0x28,%rdx
    3e81:	00 00 
    3e83:	74 05                	je     3e8a <_ZNKSt6vectorIjSaIjEE3endEv+0x4e>
    3e85:	e8 36 e6 ff ff       	callq  24c0 <__stack_chk_fail@plt>
    3e8a:	c9                   	leaveq 
    3e8b:	c3                   	retq   

0000000000003e8c <_ZSt22__uninitialized_copy_aIN9__gnu_cxx17__normal_iteratorIPKjSt6vectorIjSaIjEEEEPjjET0_T_SA_S9_RSaIT1_E>:
    3e8c:	f3 0f 1e fa          	endbr64 
    3e90:	55                   	push   %rbp
    3e91:	48 89 e5             	mov    %rsp,%rbp
    3e94:	48 83 ec 20          	sub    $0x20,%rsp
    3e98:	48 89 7d f8          	mov    %rdi,-0x8(%rbp)
    3e9c:	48 89 75 f0          	mov    %rsi,-0x10(%rbp)
    3ea0:	48 89 55 e8          	mov    %rdx,-0x18(%rbp)
    3ea4:	48 89 4d e0          	mov    %rcx,-0x20(%rbp)
    3ea8:	48 8b 55 e8          	mov    -0x18(%rbp),%rdx
    3eac:	48 8b 4d f0          	mov    -0x10(%rbp),%rcx
    3eb0:	48 8b 45 f8          	mov    -0x8(%rbp),%rax
    3eb4:	48 89 ce             	mov    %rcx,%rsi
    3eb7:	48 89 c7             	mov    %rax,%rdi
    3eba:	e8 74 09 00 00       	callq  4833 <_ZSt18uninitialized_copyIN9__gnu_cxx17__normal_iteratorIPKjSt6vectorIjSaIjEEEEPjET0_T_SA_S9_>
    3ebf:	c9                   	leaveq 
    3ec0:	c3                   	retq   
    3ec1:	90                   	nop

0000000000003ec2 <_ZN9__gnu_cxx17__normal_iteratorIPjSt6vectorIjSaIjEEEC1ERKS1_>:
    3ec2:	f3 0f 1e fa          	endbr64 
    3ec6:	55                   	push   %rbp
    3ec7:	48 89 e5             	mov    %rsp,%rbp
    3eca:	48 89 7d f8          	mov    %rdi,-0x8(%rbp)
    3ece:	48 89 75 f0          	mov    %rsi,-0x10(%rbp)
    3ed2:	48 8b 45 f0          	mov    -0x10(%rbp),%rax
    3ed6:	48 8b 10             	mov    (%rax),%rdx
    3ed9:	48 8b 45 f8          	mov    -0x8(%rbp),%rax
    3edd:	48 89 10             	mov    %rdx,(%rax)
    3ee0:	90                   	nop
    3ee1:	5d                   	pop    %rbp
    3ee2:	c3                   	retq   
    3ee3:	90                   	nop

0000000000003ee4 <_ZNK9__gnu_cxx17__normal_iteratorIPjSt6vectorIjSaIjEEE4baseEv>:
    3ee4:	f3 0f 1e fa          	endbr64 
    3ee8:	55                   	push   %rbp
    3ee9:	48 89 e5             	mov    %rsp,%rbp
    3eec:	48 89 7d f8          	mov    %rdi,-0x8(%rbp)
    3ef0:	48 8b 45 f8          	mov    -0x8(%rbp),%rax
    3ef4:	5d                   	pop    %rbp
    3ef5:	c3                   	retq   

0000000000003ef6 <_ZNSt24uniform_int_distributionIjEclISt26linear_congruential_engineImLm16807ELm0ELm2147483647EEEEjRT_RKNS0_10param_typeE>:
    3ef6:	f3 0f 1e fa          	endbr64 
    3efa:	55                   	push   %rbp
    3efb:	48 89 e5             	mov    %rsp,%rbp
    3efe:	53                   	push   %rbx
    3eff:	48 81 ec 88 00 00 00 	sub    $0x88,%rsp
    3f06:	48 89 7d 88          	mov    %rdi,-0x78(%rbp)
    3f0a:	48 89 75 80          	mov    %rsi,-0x80(%rbp)
    3f0e:	48 89 95 78 ff ff ff 	mov    %rdx,-0x88(%rbp)
    3f15:	64 48 8b 04 25 28 00 	mov    %fs:0x28,%rax
    3f1c:	00 00 
    3f1e:	48 89 45 e8          	mov    %rax,-0x18(%rbp)
    3f22:	31 c0                	xor    %eax,%eax
    3f24:	48 c7 45 98 01 00 00 	movq   $0x1,-0x68(%rbp)
    3f2b:	00 
    3f2c:	48 c7 45 a0 fe ff ff 	movq   $0x7ffffffe,-0x60(%rbp)
    3f33:	7f 
    3f34:	48 c7 45 a8 fd ff ff 	movq   $0x7ffffffd,-0x58(%rbp)
    3f3b:	7f 
    3f3c:	48 8b 85 78 ff ff ff 	mov    -0x88(%rbp),%rax
    3f43:	48 89 c7             	mov    %rax,%rdi
    3f46:	e8 1d 09 00 00       	callq  4868 <_ZNKSt24uniform_int_distributionIjE10param_type1bEv>
    3f4b:	89 c3                	mov    %eax,%ebx
    3f4d:	48 8b 85 78 ff ff ff 	mov    -0x88(%rbp),%rax
    3f54:	48 89 c7             	mov    %rax,%rdi
    3f57:	e8 22 09 00 00       	callq  487e <_ZNKSt24uniform_int_distributionIjE10param_type1aEv>
    3f5c:	89 c2                	mov    %eax,%edx
    3f5e:	48 89 d8             	mov    %rbx,%rax
    3f61:	48 29 d0             	sub    %rdx,%rax
    3f64:	48 89 45 b0          	mov    %rax,-0x50(%rbp)
    3f68:	48 81 7d b0 fc ff ff 	cmpq   $0x7ffffffc,-0x50(%rbp)
    3f6f:	7f 
    3f70:	77 5f                	ja     3fd1 <_ZNSt24uniform_int_distributionIjEclISt26linear_congruential_engineImLm16807ELm0ELm2147483647EEEEjRT_RKNS0_10param_typeE+0xdb>
    3f72:	48 8b 45 b0          	mov    -0x50(%rbp),%rax
    3f76:	48 83 c0 01          	add    $0x1,%rax
    3f7a:	48 89 45 c8          	mov    %rax,-0x38(%rbp)
    3f7e:	b8 fd ff ff 7f       	mov    $0x7ffffffd,%eax
    3f83:	ba 00 00 00 00       	mov    $0x0,%edx
    3f88:	48 f7 75 c8          	divq   -0x38(%rbp)
    3f8c:	48 89 45 d0          	mov    %rax,-0x30(%rbp)
    3f90:	48 8b 45 c8          	mov    -0x38(%rbp),%rax
    3f94:	48 0f af 45 d0       	imul   -0x30(%rbp),%rax
    3f99:	48 89 45 d8          	mov    %rax,-0x28(%rbp)
    3f9d:	48 8b 45 80          	mov    -0x80(%rbp),%rax
    3fa1:	48 89 c7             	mov    %rax,%rdi
    3fa4:	e8 e9 08 00 00       	callq  4892 <_ZNSt26linear_congruential_engineImLm16807ELm0ELm2147483647EEclEv>
    3fa9:	48 83 e8 01          	sub    $0x1,%rax
    3fad:	48 89 45 90          	mov    %rax,-0x70(%rbp)
    3fb1:	48 8b 45 90          	mov    -0x70(%rbp),%rax
    3fb5:	48 3b 45 d8          	cmp    -0x28(%rbp),%rax
    3fb9:	73 e2                	jae    3f9d <_ZNSt24uniform_int_distributionIjEclISt26linear_congruential_engineImLm16807ELm0ELm2147483647EEEEjRT_RKNS0_10param_typeE+0xa7>
    3fbb:	48 8b 45 90          	mov    -0x70(%rbp),%rax
    3fbf:	ba 00 00 00 00       	mov    $0x0,%edx
    3fc4:	48 f7 75 d0          	divq   -0x30(%rbp)
    3fc8:	48 89 45 90          	mov    %rax,-0x70(%rbp)
    3fcc:	e9 bb 00 00 00       	jmpq   408c <_ZNSt24uniform_int_distributionIjEclISt26linear_congruential_engineImLm16807ELm0ELm2147483647EEEEjRT_RKNS0_10param_typeE+0x196>
    3fd1:	48 81 7d b0 fd ff ff 	cmpq   $0x7ffffffd,-0x50(%rbp)
    3fd8:	7f 
    3fd9:	0f 86 99 00 00 00    	jbe    4078 <_ZNSt24uniform_int_distributionIjEclISt26linear_congruential_engineImLm16807ELm0ELm2147483647EEEEjRT_RKNS0_10param_typeE+0x182>
    3fdf:	48 c7 45 b8 fe ff ff 	movq   $0x7ffffffe,-0x48(%rbp)
    3fe6:	7f 
    3fe7:	48 8b 45 b0          	mov    -0x50(%rbp),%rax
    3feb:	48 d1 e8             	shr    %rax
    3fee:	48 ba 09 00 00 00 02 	movabs $0x8000000200000009,%rdx
    3ff5:	00 00 80 
    3ff8:	48 f7 e2             	mul    %rdx
    3ffb:	48 89 d0             	mov    %rdx,%rax
    3ffe:	48 c1 e8 1d          	shr    $0x1d,%rax
    4002:	89 c2                	mov    %eax,%edx
    4004:	48 8d 45 e0          	lea    -0x20(%rbp),%rax
    4008:	be 00 00 00 00       	mov    $0x0,%esi
    400d:	48 89 c7             	mov    %rax,%rdi
    4010:	e8 8b fa ff ff       	callq  3aa0 <_ZNSt24uniform_int_distributionIjE10param_typeC1Ejj>
    4015:	48 8d 55 e0          	lea    -0x20(%rbp),%rdx
    4019:	48 8b 4d 80          	mov    -0x80(%rbp),%rcx
    401d:	48 8b 45 88          	mov    -0x78(%rbp),%rax
    4021:	48 89 ce             	mov    %rcx,%rsi
    4024:	48 89 c7             	mov    %rax,%rdi
    4027:	e8 ca fe ff ff       	callq  3ef6 <_ZNSt24uniform_int_distributionIjEclISt26linear_congruential_engineImLm16807ELm0ELm2147483647EEEEjRT_RKNS0_10param_typeE>
    402c:	89 c2                	mov    %eax,%edx
    402e:	48 89 d0             	mov    %rdx,%rax
    4031:	48 c1 e0 1e          	shl    $0x1e,%rax
    4035:	48 29 d0             	sub    %rdx,%rax
    4038:	48 01 c0             	add    %rax,%rax
    403b:	48 89 45 c0          	mov    %rax,-0x40(%rbp)
    403f:	48 8b 45 80          	mov    -0x80(%rbp),%rax
    4043:	48 89 c7             	mov    %rax,%rdi
    4046:	e8 47 08 00 00       	callq  4892 <_ZNSt26linear_congruential_engineImLm16807ELm0ELm2147483647EEclEv>
    404b:	48 8b 55 c0          	mov    -0x40(%rbp),%rdx
    404f:	48 01 d0             	add    %rdx,%rax
    4052:	48 83 e8 01          	sub    $0x1,%rax
    4056:	48 89 45 90          	mov    %rax,-0x70(%rbp)
    405a:	48 8b 45 90          	mov    -0x70(%rbp),%rax
    405e:	48 3b 45 b0          	cmp    -0x50(%rbp),%rax
    4062:	0f 87 77 ff ff ff    	ja     3fdf <_ZNSt24uniform_int_distributionIjEclISt26linear_congruential_engineImLm16807ELm0ELm2147483647EEEEjRT_RKNS0_10param_typeE+0xe9>
    4068:	48 8b 45 90          	mov    -0x70(%rbp),%rax
    406c:	48 3b 45 c0          	cmp    -0x40(%rbp),%rax
    4070:	0f 82 69 ff ff ff    	jb     3fdf <_ZNSt24uniform_int_distributionIjEclISt26linear_congruential_engineImLm16807ELm0ELm2147483647EEEEjRT_RKNS0_10param_typeE+0xe9>
    4076:	eb 14                	jmp    408c <_ZNSt24uniform_int_distributionIjEclISt26linear_congruential_engineImLm16807ELm0ELm2147483647EEEEjRT_RKNS0_10param_typeE+0x196>
    4078:	48 8b 45 80          	mov    -0x80(%rbp),%rax
    407c:	48 89 c7             	mov    %rax,%rdi
    407f:	e8 0e 08 00 00       	callq  4892 <_ZNSt26linear_congruential_engineImLm16807ELm0ELm2147483647EEclEv>
    4084:	48 83 e8 01          	sub    $0x1,%rax
    4088:	48 89 45 90          	mov    %rax,-0x70(%rbp)
    408c:	48 8b 85 78 ff ff ff 	mov    -0x88(%rbp),%rax
    4093:	48 89 c7             	mov    %rax,%rdi
    4096:	e8 e3 07 00 00       	callq  487e <_ZNKSt24uniform_int_distributionIjE10param_type1aEv>
    409b:	89 c2                	mov    %eax,%edx
    409d:	48 8b 45 90          	mov    -0x70(%rbp),%rax
    40a1:	01 d0                	add    %edx,%eax
    40a3:	48 8b 55 e8          	mov    -0x18(%rbp),%rdx
    40a7:	64 48 2b 14 25 28 00 	sub    %fs:0x28,%rdx
    40ae:	00 00 
    40b0:	74 05                	je     40b7 <_ZNSt24uniform_int_distributionIjEclISt26linear_congruential_engineImLm16807ELm0ELm2147483647EEEEjRT_RKNS0_10param_typeE+0x1c1>
    40b2:	e8 09 e4 ff ff       	callq  24c0 <__stack_chk_fail@plt>
    40b7:	48 8b 5d f8          	mov    -0x8(%rbp),%rbx
    40bb:	c9                   	leaveq 
    40bc:	c3                   	retq   
    40bd:	90                   	nop

00000000000040be <_ZNSt6chrono8durationIlSt5ratioILl1ELl1000EEEC1IlvEERKT_>:
    40be:	f3 0f 1e fa          	endbr64 
    40c2:	55                   	push   %rbp
    40c3:	48 89 e5             	mov    %rsp,%rbp
    40c6:	48 89 7d f8          	mov    %rdi,-0x8(%rbp)
    40ca:	48 89 75 f0          	mov    %rsi,-0x10(%rbp)
    40ce:	48 8b 45 f0          	mov    -0x10(%rbp),%rax
    40d2:	48 8b 10             	mov    (%rax),%rdx
    40d5:	48 8b 45 f8          	mov    -0x8(%rbp),%rax
    40d9:	48 89 10             	mov    %rdx,(%rax)
    40dc:	90                   	nop
    40dd:	5d                   	pop    %rbp
    40de:	c3                   	retq   
    40df:	90                   	nop

00000000000040e0 <_ZNSt7__cxx1112basic_stringIcSt11char_traitsIcESaIcEE16_M_construct_auxIPKcEEvT_S8_St12__false_type>:
    40e0:	f3 0f 1e fa          	endbr64 
    40e4:	55                   	push   %rbp
    40e5:	48 89 e5             	mov    %rsp,%rbp
    40e8:	48 83 ec 30          	sub    $0x30,%rsp
    40ec:	48 89 7d e8          	mov    %rdi,-0x18(%rbp)
    40f0:	48 89 75 e0          	mov    %rsi,-0x20(%rbp)
    40f4:	48 89 55 d8          	mov    %rdx,-0x28(%rbp)
    40f8:	64 48 8b 04 25 28 00 	mov    %fs:0x28,%rax
    40ff:	00 00 
    4101:	48 89 45 f8          	mov    %rax,-0x8(%rbp)
    4105:	31 c0                	xor    %eax,%eax
    4107:	48 8b 55 d8          	mov    -0x28(%rbp),%rdx
    410b:	48 8b 4d e0          	mov    -0x20(%rbp),%rcx
    410f:	48 8b 45 e8          	mov    -0x18(%rbp),%rax
    4113:	48 89 ce             	mov    %rcx,%rsi
    4116:	48 89 c7             	mov    %rax,%rdi
    4119:	e8 d8 07 00 00       	callq  48f6 <_ZNSt7__cxx1112basic_stringIcSt11char_traitsIcESaIcEE12_M_constructIPKcEEvT_S8_St20forward_iterator_tag>
    411e:	90                   	nop
    411f:	48 8b 45 f8          	mov    -0x8(%rbp),%rax
    4123:	64 48 2b 04 25 28 00 	sub    %fs:0x28,%rax
    412a:	00 00 
    412c:	74 05                	je     4133 <_ZNSt7__cxx1112basic_stringIcSt11char_traitsIcESaIcEE16_M_construct_auxIPKcEEvT_S8_St12__false_type+0x53>
    412e:	e8 8d e3 ff ff       	callq  24c0 <__stack_chk_fail@plt>
    4133:	c9                   	leaveq 
    4134:	c3                   	retq   
    4135:	90                   	nop

0000000000004136 <_ZN9__gnu_cxx13new_allocatorIjEC1Ev>:
    4136:	f3 0f 1e fa          	endbr64 
    413a:	55                   	push   %rbp
    413b:	48 89 e5             	mov    %rsp,%rbp
    413e:	48 89 7d f8          	mov    %rdi,-0x8(%rbp)
    4142:	90                   	nop
    4143:	5d                   	pop    %rbp
    4144:	c3                   	retq   

0000000000004145 <_ZNSt16allocator_traitsISaIjEE10deallocateERS0_Pjm>:
    4145:	f3 0f 1e fa          	endbr64 
    4149:	55                   	push   %rbp
    414a:	48 89 e5             	mov    %rsp,%rbp
    414d:	48 83 ec 20          	sub    $0x20,%rsp
    4151:	48 89 7d f8          	mov    %rdi,-0x8(%rbp)
    4155:	48 89 75 f0          	mov    %rsi,-0x10(%rbp)
    4159:	48 89 55 e8          	mov    %rdx,-0x18(%rbp)
    415d:	48 8b 55 e8          	mov    -0x18(%rbp),%rdx
    4161:	48 8b 4d f0          	mov    -0x10(%rbp),%rcx
    4165:	48 8b 45 f8          	mov    -0x8(%rbp),%rax
    4169:	48 89 ce             	mov    %rcx,%rsi
    416c:	48 89 c7             	mov    %rax,%rdi
    416f:	e8 c8 08 00 00       	callq  4a3c <_ZN9__gnu_cxx13new_allocatorIjE10deallocateEPjm>
    4174:	90                   	nop
    4175:	c9                   	leaveq 
    4176:	c3                   	retq   

0000000000004177 <_ZSt8_DestroyIPjEvT_S1_>:
    4177:	f3 0f 1e fa          	endbr64 
    417b:	55                   	push   %rbp
    417c:	48 89 e5             	mov    %rsp,%rbp
    417f:	48 83 ec 10          	sub    $0x10,%rsp
    4183:	48 89 7d f8          	mov    %rdi,-0x8(%rbp)
    4187:	48 89 75 f0          	mov    %rsi,-0x10(%rbp)
    418b:	48 8b 55 f0          	mov    -0x10(%rbp),%rdx
    418f:	48 8b 45 f8          	mov    -0x8(%rbp),%rax
    4193:	48 89 d6             	mov    %rdx,%rsi
    4196:	48 89 c7             	mov    %rax,%rdi
    4199:	e8 d3 08 00 00       	callq  4a71 <_ZNSt12_Destroy_auxILb1EE9__destroyIPjEEvT_S3_>
    419e:	90                   	nop
    419f:	c9                   	leaveq 
    41a0:	c3                   	retq   
    41a1:	90                   	nop

00000000000041a2 <_ZNSt26linear_congruential_engineImLm16807ELm0ELm2147483647EE4seedEm>:
    41a2:	f3 0f 1e fa          	endbr64 
    41a6:	55                   	push   %rbp
    41a7:	48 89 e5             	mov    %rsp,%rbp
    41aa:	48 83 ec 10          	sub    $0x10,%rsp
    41ae:	48 89 7d f8          	mov    %rdi,-0x8(%rbp)
    41b2:	48 89 75 f0          	mov    %rsi,-0x10(%rbp)
    41b6:	bf 00 00 00 00       	mov    $0x0,%edi
    41bb:	e8 c4 08 00 00       	callq  4a84 <_ZNSt8__detail5__modImLm2147483647ELm1ELm0EEET_S1_>
    41c0:	48 85 c0             	test   %rax,%rax
    41c3:	75 18                	jne    41dd <_ZNSt26linear_congruential_engineImLm16807ELm0ELm2147483647EE4seedEm+0x3b>
    41c5:	48 8b 45 f0          	mov    -0x10(%rbp),%rax
    41c9:	48 89 c7             	mov    %rax,%rdi
    41cc:	e8 b3 08 00 00       	callq  4a84 <_ZNSt8__detail5__modImLm2147483647ELm1ELm0EEET_S1_>
    41d1:	48 85 c0             	test   %rax,%rax
    41d4:	75 07                	jne    41dd <_ZNSt26linear_congruential_engineImLm16807ELm0ELm2147483647EE4seedEm+0x3b>
    41d6:	b8 01 00 00 00       	mov    $0x1,%eax
    41db:	eb 05                	jmp    41e2 <_ZNSt26linear_congruential_engineImLm16807ELm0ELm2147483647EE4seedEm+0x40>
    41dd:	b8 00 00 00 00       	mov    $0x0,%eax
    41e2:	84 c0                	test   %al,%al
    41e4:	74 0d                	je     41f3 <_ZNSt26linear_congruential_engineImLm16807ELm0ELm2147483647EE4seedEm+0x51>
    41e6:	48 8b 45 f8          	mov    -0x8(%rbp),%rax
    41ea:	48 c7 00 01 00 00 00 	movq   $0x1,(%rax)
    41f1:	eb 13                	jmp    4206 <_ZNSt26linear_congruential_engineImLm16807ELm0ELm2147483647EE4seedEm+0x64>
    41f3:	48 8b 45 f0          	mov    -0x10(%rbp),%rax
    41f7:	48 89 c7             	mov    %rax,%rdi
    41fa:	e8 85 08 00 00       	callq  4a84 <_ZNSt8__detail5__modImLm2147483647ELm1ELm0EEET_S1_>
    41ff:	48 8b 55 f8          	mov    -0x8(%rbp),%rdx
    4203:	48 89 02             	mov    %rax,(%rdx)
    4206:	90                   	nop
    4207:	c9                   	leaveq 
    4208:	c3                   	retq   
    4209:	90                   	nop

000000000000420a <_ZNSaISt6vectorIjSaIjEEEC1Ev>:
    420a:	f3 0f 1e fa          	endbr64 
    420e:	55                   	push   %rbp
    420f:	48 89 e5             	mov    %rsp,%rbp
    4212:	48 83 ec 10          	sub    $0x10,%rsp
    4216:	48 89 7d f8          	mov    %rdi,-0x8(%rbp)
    421a:	48 8b 45 f8          	mov    -0x8(%rbp),%rax
    421e:	48 89 c7             	mov    %rax,%rdi
    4221:	e8 84 08 00 00       	callq  4aaa <_ZN9__gnu_cxx13new_allocatorISt6vectorIjSaIjEEEC1Ev>
    4226:	90                   	nop
    4227:	c9                   	leaveq 
    4228:	c3                   	retq   
    4229:	90                   	nop

000000000000422a <_ZNSt12_Vector_baseISt6vectorIjSaIjEESaIS2_EE17_Vector_impl_dataC1Ev>:
    422a:	f3 0f 1e fa          	endbr64 
    422e:	55                   	push   %rbp
    422f:	48 89 e5             	mov    %rsp,%rbp
    4232:	48 89 7d f8          	mov    %rdi,-0x8(%rbp)
    4236:	48 8b 45 f8          	mov    -0x8(%rbp),%rax
    423a:	48 c7 00 00 00 00 00 	movq   $0x0,(%rax)
    4241:	48 8b 45 f8          	mov    -0x8(%rbp),%rax
    4245:	48 c7 40 08 00 00 00 	movq   $0x0,0x8(%rax)
    424c:	00 
    424d:	48 8b 45 f8          	mov    -0x8(%rbp),%rax
    4251:	48 c7 40 10 00 00 00 	movq   $0x0,0x10(%rax)
    4258:	00 
    4259:	90                   	nop
    425a:	5d                   	pop    %rbp
    425b:	c3                   	retq   

000000000000425c <_ZNSt12_Vector_baseISt6vectorIjSaIjEESaIS2_EE13_M_deallocateEPS2_m>:
    425c:	f3 0f 1e fa          	endbr64 
    4260:	55                   	push   %rbp
    4261:	48 89 e5             	mov    %rsp,%rbp
    4264:	48 83 ec 20          	sub    $0x20,%rsp
    4268:	48 89 7d f8          	mov    %rdi,-0x8(%rbp)
    426c:	48 89 75 f0          	mov    %rsi,-0x10(%rbp)
    4270:	48 89 55 e8          	mov    %rdx,-0x18(%rbp)
    4274:	48 83 7d f0 00       	cmpq   $0x0,-0x10(%rbp)
    4279:	74 17                	je     4292 <_ZNSt12_Vector_baseISt6vectorIjSaIjEESaIS2_EE13_M_deallocateEPS2_m+0x36>
    427b:	48 8b 45 f8          	mov    -0x8(%rbp),%rax
    427f:	48 8b 55 e8          	mov    -0x18(%rbp),%rdx
    4283:	48 8b 4d f0          	mov    -0x10(%rbp),%rcx
    4287:	48 89 ce             	mov    %rcx,%rsi
    428a:	48 89 c7             	mov    %rax,%rdi
    428d:	e8 27 08 00 00       	callq  4ab9 <_ZNSt16allocator_traitsISaISt6vectorIjSaIjEEEE10deallocateERS3_PS2_m>
    4292:	90                   	nop
    4293:	c9                   	leaveq 
    4294:	c3                   	retq   

0000000000004295 <_Z10getline_asIjEiRSiRT_>:
    4295:	f3 0f 1e fa          	endbr64 
    4299:	55                   	push   %rbp
    429a:	48 89 e5             	mov    %rsp,%rbp
    429d:	53                   	push   %rbx
    429e:	48 81 ec c8 01 00 00 	sub    $0x1c8,%rsp
    42a5:	48 89 bd 38 fe ff ff 	mov    %rdi,-0x1c8(%rbp)
    42ac:	48 89 b5 30 fe ff ff 	mov    %rsi,-0x1d0(%rbp)
    42b3:	64 48 8b 04 25 28 00 	mov    %fs:0x28,%rax
    42ba:	00 00 
    42bc:	48 89 45 e8          	mov    %rax,-0x18(%rbp)
    42c0:	31 c0                	xor    %eax,%eax
    42c2:	48 8d 85 40 fe ff ff 	lea    -0x1c0(%rbp),%rax
    42c9:	48 89 c7             	mov    %rax,%rdi
    42cc:	e8 1f e2 ff ff       	callq  24f0 <_ZNSt7__cxx1112basic_stringIcSt11char_traitsIcESaIcEEC1Ev@plt>
    42d1:	48 8d 95 40 fe ff ff 	lea    -0x1c0(%rbp),%rdx
    42d8:	48 8b 85 38 fe ff ff 	mov    -0x1c8(%rbp),%rax
    42df:	48 89 d6             	mov    %rdx,%rsi
    42e2:	48 89 c7             	mov    %rax,%rdi
    42e5:	e8 bf e3 ff ff       	callq  26a9 <_Z10getline_asINSt7__cxx1112basic_stringIcSt11char_traitsIcESaIcEEEEiRSiRT_>
    42ea:	85 c0                	test   %eax,%eax
    42ec:	0f 95 c0             	setne  %al
    42ef:	84 c0                	test   %al,%al
    42f1:	74 59                	je     434c <_Z10getline_asIjEiRSiRT_+0xb7>
    42f3:	be 08 00 00 00       	mov    $0x8,%esi
    42f8:	bf 10 00 00 00       	mov    $0x10,%edi
    42fd:	e8 0b eb ff ff       	callq  2e0d <_ZStorSt13_Ios_OpenmodeS_>
    4302:	89 c2                	mov    %eax,%edx
    4304:	48 8d 8d 40 fe ff ff 	lea    -0x1c0(%rbp),%rcx
    430b:	48 8d 85 60 fe ff ff 	lea    -0x1a0(%rbp),%rax
    4312:	48 89 ce             	mov    %rcx,%rsi
    4315:	48 89 c7             	mov    %rax,%rdi
    4318:	e8 03 e2 ff ff       	callq  2520 <_ZNSt7__cxx1118basic_stringstreamIcSt11char_traitsIcESaIcEEC1ERKNS_12basic_stringIcS2_S3_EESt13_Ios_Openmode@plt>
    431d:	48 8b 95 30 fe ff ff 	mov    -0x1d0(%rbp),%rdx
    4324:	48 8d 85 60 fe ff ff 	lea    -0x1a0(%rbp),%rax
    432b:	48 89 d6             	mov    %rdx,%rsi
    432e:	48 89 c7             	mov    %rax,%rdi
    4331:	e8 da df ff ff       	callq  2310 <_ZNSirsERj@plt>
    4336:	bb 01 00 00 00       	mov    $0x1,%ebx
    433b:	48 8d 85 60 fe ff ff 	lea    -0x1a0(%rbp),%rax
    4342:	48 89 c7             	mov    %rax,%rdi
    4345:	e8 96 e0 ff ff       	callq  23e0 <_ZNSt7__cxx1118basic_stringstreamIcSt11char_traitsIcESaIcEED1Ev@plt>
    434a:	eb 05                	jmp    4351 <_Z10getline_asIjEiRSiRT_+0xbc>
    434c:	bb 00 00 00 00       	mov    $0x0,%ebx
    4351:	48 8d 85 40 fe ff ff 	lea    -0x1c0(%rbp),%rax
    4358:	48 89 c7             	mov    %rax,%rdi
    435b:	e8 50 e0 ff ff       	callq  23b0 <_ZNSt7__cxx1112basic_stringIcSt11char_traitsIcESaIcEED1Ev@plt>
    4360:	89 d8                	mov    %ebx,%eax
    4362:	48 8b 55 e8          	mov    -0x18(%rbp),%rdx
    4366:	64 48 2b 14 25 28 00 	sub    %fs:0x28,%rdx
    436d:	00 00 
    436f:	74 40                	je     43b1 <_Z10getline_asIjEiRSiRT_+0x11c>
    4371:	eb 39                	jmp    43ac <_Z10getline_asIjEiRSiRT_+0x117>
    4373:	f3 0f 1e fa          	endbr64 
    4377:	48 89 c3             	mov    %rax,%rbx
    437a:	48 8d 85 60 fe ff ff 	lea    -0x1a0(%rbp),%rax
    4381:	48 89 c7             	mov    %rax,%rdi
    4384:	e8 57 e0 ff ff       	callq  23e0 <_ZNSt7__cxx1118basic_stringstreamIcSt11char_traitsIcESaIcEED1Ev@plt>
    4389:	eb 07                	jmp    4392 <_Z10getline_asIjEiRSiRT_+0xfd>
    438b:	f3 0f 1e fa          	endbr64 
    438f:	48 89 c3             	mov    %rax,%rbx
    4392:	48 8d 85 40 fe ff ff 	lea    -0x1c0(%rbp),%rax
    4399:	48 89 c7             	mov    %rax,%rdi
    439c:	e8 0f e0 ff ff       	callq  23b0 <_ZNSt7__cxx1112basic_stringIcSt11char_traitsIcESaIcEED1Ev@plt>
    43a1:	48 89 d8             	mov    %rbx,%rax
    43a4:	48 89 c7             	mov    %rax,%rdi
    43a7:	e8 b4 e1 ff ff       	callq  2560 <_Unwind_Resume@plt>
    43ac:	e8 0f e1 ff ff       	callq  24c0 <__stack_chk_fail@plt>
    43b1:	48 8b 5d f8          	mov    -0x8(%rbp),%rbx
    43b5:	c9                   	leaveq 
    43b6:	c3                   	retq   
    43b7:	90                   	nop

00000000000043b8 <_ZNSt6vectorIjSaIjEE9push_backERKj>:
    43b8:	f3 0f 1e fa          	endbr64 
    43bc:	55                   	push   %rbp
    43bd:	48 89 e5             	mov    %rsp,%rbp
    43c0:	48 83 ec 10          	sub    $0x10,%rsp
    43c4:	48 89 7d f8          	mov    %rdi,-0x8(%rbp)
    43c8:	48 89 75 f0          	mov    %rsi,-0x10(%rbp)
    43cc:	48 8b 45 f8          	mov    -0x8(%rbp),%rax
    43d0:	48 8b 50 08          	mov    0x8(%rax),%rdx
    43d4:	48 8b 45 f8          	mov    -0x8(%rbp),%rax
    43d8:	48 8b 40 10          	mov    0x10(%rax),%rax
    43dc:	48 39 c2             	cmp    %rax,%rdx
    43df:	74 31                	je     4412 <_ZNSt6vectorIjSaIjEE9push_backERKj+0x5a>
    43e1:	48 8b 45 f8          	mov    -0x8(%rbp),%rax
    43e5:	48 8b 48 08          	mov    0x8(%rax),%rcx
    43e9:	48 8b 45 f8          	mov    -0x8(%rbp),%rax
    43ed:	48 8b 55 f0          	mov    -0x10(%rbp),%rdx
    43f1:	48 89 ce             	mov    %rcx,%rsi
    43f4:	48 89 c7             	mov    %rax,%rdi
    43f7:	e8 ef 06 00 00       	callq  4aeb <_ZNSt16allocator_traitsISaIjEE9constructIjJRKjEEEvRS0_PT_DpOT0_>
    43fc:	48 8b 45 f8          	mov    -0x8(%rbp),%rax
    4400:	48 8b 40 08          	mov    0x8(%rax),%rax
    4404:	48 8d 50 04          	lea    0x4(%rax),%rdx
    4408:	48 8b 45 f8          	mov    -0x8(%rbp),%rax
    440c:	48 89 50 08          	mov    %rdx,0x8(%rax)
    4410:	eb 22                	jmp    4434 <_ZNSt6vectorIjSaIjEE9push_backERKj+0x7c>
    4412:	48 8b 45 f8          	mov    -0x8(%rbp),%rax
    4416:	48 89 c7             	mov    %rax,%rdi
    4419:	e8 d2 f3 ff ff       	callq  37f0 <_ZNSt6vectorIjSaIjEE3endEv>
    441e:	48 89 c1             	mov    %rax,%rcx
    4421:	48 8b 55 f0          	mov    -0x10(%rbp),%rdx
    4425:	48 8b 45 f8          	mov    -0x8(%rbp),%rax
    4429:	48 89 ce             	mov    %rcx,%rsi
    442c:	48 89 c7             	mov    %rax,%rdi
    442f:	e8 f4 06 00 00       	callq  4b28 <_ZNSt6vectorIjSaIjEE17_M_realloc_insertIJRKjEEEvN9__gnu_cxx17__normal_iteratorIPjS1_EEDpOT_>
    4434:	90                   	nop
    4435:	c9                   	leaveq 
    4436:	c3                   	retq   

0000000000004437 <_ZNSt16allocator_traitsISaISt6vectorIjSaIjEEEE9constructIS2_JRKS2_EEEvRS3_PT_DpOT0_>:
    4437:	f3 0f 1e fa          	endbr64 
    443b:	55                   	push   %rbp
    443c:	48 89 e5             	mov    %rsp,%rbp
    443f:	48 83 ec 20          	sub    $0x20,%rsp
    4443:	48 89 7d f8          	mov    %rdi,-0x8(%rbp)
    4447:	48 89 75 f0          	mov    %rsi,-0x10(%rbp)
    444b:	48 89 55 e8          	mov    %rdx,-0x18(%rbp)
    444f:	48 8b 45 e8          	mov    -0x18(%rbp),%rax
    4453:	48 89 c7             	mov    %rax,%rdi
    4456:	e8 86 08 00 00       	callq  4ce1 <_ZSt7forwardIRKSt6vectorIjSaIjEEEOT_RNSt16remove_referenceIS5_E4typeE>
    445b:	48 89 c2             	mov    %rax,%rdx
    445e:	48 8b 4d f0          	mov    -0x10(%rbp),%rcx
    4462:	48 8b 45 f8          	mov    -0x8(%rbp),%rax
    4466:	48 89 ce             	mov    %rcx,%rsi
    4469:	48 89 c7             	mov    %rax,%rdi
    446c:	e8 83 08 00 00       	callq  4cf4 <_ZN9__gnu_cxx13new_allocatorISt6vectorIjSaIjEEE9constructIS3_JRKS3_EEEvPT_DpOT0_>
    4471:	90                   	nop
    4472:	c9                   	leaveq 
    4473:	c3                   	retq   

0000000000004474 <_ZNSt6vectorIS_IjSaIjEESaIS1_EE17_M_realloc_insertIJRKS1_EEEvN9__gnu_cxx17__normal_iteratorIPS1_S3_EEDpOT_>:
    4474:	f3 0f 1e fa          	endbr64 
    4478:	55                   	push   %rbp
    4479:	48 89 e5             	mov    %rsp,%rbp
    447c:	53                   	push   %rbx
    447d:	48 83 ec 68          	sub    $0x68,%rsp
    4481:	48 89 7d a8          	mov    %rdi,-0x58(%rbp)
    4485:	48 89 75 a0          	mov    %rsi,-0x60(%rbp)
    4489:	48 89 55 98          	mov    %rdx,-0x68(%rbp)
    448d:	64 48 8b 04 25 28 00 	mov    %fs:0x28,%rax
    4494:	00 00 
    4496:	48 89 45 e8          	mov    %rax,-0x18(%rbp)
    449a:	31 c0                	xor    %eax,%eax
    449c:	48 8b 45 a8          	mov    -0x58(%rbp),%rax
    44a0:	48 8d 15 bc 1b 00 00 	lea    0x1bbc(%rip),%rdx        # 6063 <_ZN6__pstl9execution2v1L5unseqE+0x58>
    44a7:	be 01 00 00 00       	mov    $0x1,%esi
    44ac:	48 89 c7             	mov    %rax,%rdi
    44af:	e8 b6 08 00 00       	callq  4d6a <_ZNKSt6vectorIS_IjSaIjEESaIS1_EE12_M_check_lenEmPKc>
    44b4:	48 89 45 b8          	mov    %rax,-0x48(%rbp)
    44b8:	48 8b 45 a8          	mov    -0x58(%rbp),%rax
    44bc:	48 8b 00             	mov    (%rax),%rax
    44bf:	48 89 45 c0          	mov    %rax,-0x40(%rbp)
    44c3:	48 8b 45 a8          	mov    -0x58(%rbp),%rax
    44c7:	48 8b 40 08          	mov    0x8(%rax),%rax
    44cb:	48 89 45 c8          	mov    %rax,-0x38(%rbp)
    44cf:	48 8b 45 a8          	mov    -0x58(%rbp),%rax
    44d3:	48 89 c7             	mov    %rax,%rdi
    44d6:	e8 93 f0 ff ff       	callq  356e <_ZNSt6vectorIS_IjSaIjEESaIS1_EE5beginEv>
    44db:	48 89 45 b0          	mov    %rax,-0x50(%rbp)
    44df:	48 8d 55 b0          	lea    -0x50(%rbp),%rdx
    44e3:	48 8d 45 a0          	lea    -0x60(%rbp),%rax
    44e7:	48 89 d6             	mov    %rdx,%rsi
    44ea:	48 89 c7             	mov    %rax,%rdi
    44ed:	e8 67 09 00 00       	callq  4e59 <_ZN9__gnu_cxxmiIPSt6vectorIjSaIjEES1_IS3_SaIS3_EEEENS_17__normal_iteratorIT_T0_E15difference_typeERKSA_SD_>
    44f2:	48 89 45 d0          	mov    %rax,-0x30(%rbp)
    44f6:	48 8b 45 a8          	mov    -0x58(%rbp),%rax
    44fa:	48 8b 55 b8          	mov    -0x48(%rbp),%rdx
    44fe:	48 89 d6             	mov    %rdx,%rsi
    4501:	48 89 c7             	mov    %rax,%rdi
    4504:	e8 a5 09 00 00       	callq  4eae <_ZNSt12_Vector_baseISt6vectorIjSaIjEESaIS2_EE11_M_allocateEm>
    4509:	48 89 45 d8          	mov    %rax,-0x28(%rbp)
    450d:	48 8b 45 d8          	mov    -0x28(%rbp),%rax
    4511:	48 89 45 e0          	mov    %rax,-0x20(%rbp)
    4515:	48 8b 45 98          	mov    -0x68(%rbp),%rax
    4519:	48 89 c7             	mov    %rax,%rdi
    451c:	e8 c0 07 00 00       	callq  4ce1 <_ZSt7forwardIRKSt6vectorIjSaIjEEEOT_RNSt16remove_referenceIS5_E4typeE>
    4521:	48 89 c6             	mov    %rax,%rsi
    4524:	48 8b 55 d0          	mov    -0x30(%rbp),%rdx
    4528:	48 89 d0             	mov    %rdx,%rax
    452b:	48 01 c0             	add    %rax,%rax
    452e:	48 01 d0             	add    %rdx,%rax
    4531:	48 c1 e0 03          	shl    $0x3,%rax
    4535:	48 89 c2             	mov    %rax,%rdx
    4538:	48 8b 45 d8          	mov    -0x28(%rbp),%rax
    453c:	48 8d 0c 02          	lea    (%rdx,%rax,1),%rcx
    4540:	48 8b 45 a8          	mov    -0x58(%rbp),%rax
    4544:	48 89 f2             	mov    %rsi,%rdx
    4547:	48 89 ce             	mov    %rcx,%rsi
    454a:	48 89 c7             	mov    %rax,%rdi
    454d:	e8 e5 fe ff ff       	callq  4437 <_ZNSt16allocator_traitsISaISt6vectorIjSaIjEEEE9constructIS2_JRKS2_EEEvRS3_PT_DpOT0_>
    4552:	48 c7 45 e0 00 00 00 	movq   $0x0,-0x20(%rbp)
    4559:	00 
    455a:	48 8b 45 a8          	mov    -0x58(%rbp),%rax
    455e:	48 89 c7             	mov    %rax,%rdi
    4561:	e8 b6 09 00 00       	callq  4f1c <_ZNSt12_Vector_baseISt6vectorIjSaIjEESaIS2_EE19_M_get_Tp_allocatorEv>
    4566:	48 89 c3             	mov    %rax,%rbx
    4569:	48 8d 45 a0          	lea    -0x60(%rbp),%rax
    456d:	48 89 c7             	mov    %rax,%rdi
    4570:	e8 a1 f7 ff ff       	callq  3d16 <_ZNK9__gnu_cxx17__normal_iteratorIPSt6vectorIjSaIjEES1_IS3_SaIS3_EEE4baseEv>
    4575:	48 8b 30             	mov    (%rax),%rsi
    4578:	48 8b 55 d8          	mov    -0x28(%rbp),%rdx
    457c:	48 8b 45 c0          	mov    -0x40(%rbp),%rax
    4580:	48 89 d9             	mov    %rbx,%rcx
    4583:	48 89 c7             	mov    %rax,%rdi
    4586:	e8 5a 09 00 00       	callq  4ee5 <_ZNSt6vectorIS_IjSaIjEESaIS1_EE11_S_relocateEPS1_S4_S4_RS2_>
    458b:	48 89 45 e0          	mov    %rax,-0x20(%rbp)
    458f:	48 83 45 e0 18       	addq   $0x18,-0x20(%rbp)
    4594:	48 8b 45 a8          	mov    -0x58(%rbp),%rax
    4598:	48 89 c7             	mov    %rax,%rdi
    459b:	e8 7c 09 00 00       	callq  4f1c <_ZNSt12_Vector_baseISt6vectorIjSaIjEESaIS2_EE19_M_get_Tp_allocatorEv>
    45a0:	48 89 c3             	mov    %rax,%rbx
    45a3:	48 8d 45 a0          	lea    -0x60(%rbp),%rax
    45a7:	48 89 c7             	mov    %rax,%rdi
    45aa:	e8 67 f7 ff ff       	callq  3d16 <_ZNK9__gnu_cxx17__normal_iteratorIPSt6vectorIjSaIjEES1_IS3_SaIS3_EEE4baseEv>
    45af:	48 8b 00             	mov    (%rax),%rax
    45b2:	48 8b 55 e0          	mov    -0x20(%rbp),%rdx
    45b6:	48 8b 75 c8          	mov    -0x38(%rbp),%rsi
    45ba:	48 89 d9             	mov    %rbx,%rcx
    45bd:	48 89 c7             	mov    %rax,%rdi
    45c0:	e8 20 09 00 00       	callq  4ee5 <_ZNSt6vectorIS_IjSaIjEESaIS1_EE11_S_relocateEPS1_S4_S4_RS2_>
    45c5:	48 89 45 e0          	mov    %rax,-0x20(%rbp)
    45c9:	48 8b 45 a8          	mov    -0x58(%rbp),%rax
    45cd:	48 8b 55 a8          	mov    -0x58(%rbp),%rdx
    45d1:	48 8b 52 10          	mov    0x10(%rdx),%rdx
    45d5:	48 2b 55 c0          	sub    -0x40(%rbp),%rdx
    45d9:	48 89 d1             	mov    %rdx,%rcx
    45dc:	48 c1 f9 03          	sar    $0x3,%rcx
    45e0:	48 ba ab aa aa aa aa 	movabs $0xaaaaaaaaaaaaaaab,%rdx
    45e7:	aa aa aa 
    45ea:	48 0f af d1          	imul   %rcx,%rdx
    45ee:	48 8b 4d c0          	mov    -0x40(%rbp),%rcx
    45f2:	48 89 ce             	mov    %rcx,%rsi
    45f5:	48 89 c7             	mov    %rax,%rdi
    45f8:	e8 5f fc ff ff       	callq  425c <_ZNSt12_Vector_baseISt6vectorIjSaIjEESaIS2_EE13_M_deallocateEPS2_m>
    45fd:	48 8b 45 a8          	mov    -0x58(%rbp),%rax
    4601:	48 8b 55 d8          	mov    -0x28(%rbp),%rdx
    4605:	48 89 10             	mov    %rdx,(%rax)
    4608:	48 8b 45 a8          	mov    -0x58(%rbp),%rax
    460c:	48 8b 55 e0          	mov    -0x20(%rbp),%rdx
    4610:	48 89 50 08          	mov    %rdx,0x8(%rax)
    4614:	48 8b 55 b8          	mov    -0x48(%rbp),%rdx
    4618:	48 89 d0             	mov    %rdx,%rax
    461b:	48 01 c0             	add    %rax,%rax
    461e:	48 01 d0             	add    %rdx,%rax
    4621:	48 c1 e0 03          	shl    $0x3,%rax
    4625:	48 89 c2             	mov    %rax,%rdx
    4628:	48 8b 45 d8          	mov    -0x28(%rbp),%rax
    462c:	48 01 c2             	add    %rax,%rdx
    462f:	48 8b 45 a8          	mov    -0x58(%rbp),%rax
    4633:	48 89 50 10          	mov    %rdx,0x10(%rax)
    4637:	90                   	nop
    4638:	48 8b 45 e8          	mov    -0x18(%rbp),%rax
    463c:	64 48 2b 04 25 28 00 	sub    %fs:0x28,%rax
    4643:	00 00 
    4645:	0f 84 9e 00 00 00    	je     46e9 <_ZNSt6vectorIS_IjSaIjEESaIS1_EE17_M_realloc_insertIJRKS1_EEEvN9__gnu_cxx17__normal_iteratorIPS1_S3_EEDpOT_+0x275>
    464b:	e9 94 00 00 00       	jmpq   46e4 <_ZNSt6vectorIS_IjSaIjEESaIS1_EE17_M_realloc_insertIJRKS1_EEEvN9__gnu_cxx17__normal_iteratorIPS1_S3_EEDpOT_+0x270>
    4650:	f3 0f 1e fa          	endbr64 
    4654:	48 89 c7             	mov    %rax,%rdi
    4657:	e8 14 dd ff ff       	callq  2370 <__cxa_begin_catch@plt>
    465c:	48 83 7d e0 00       	cmpq   $0x0,-0x20(%rbp)
    4661:	75 2c                	jne    468f <_ZNSt6vectorIS_IjSaIjEESaIS1_EE17_M_realloc_insertIJRKS1_EEEvN9__gnu_cxx17__normal_iteratorIPS1_S3_EEDpOT_+0x21b>
    4663:	48 8b 55 d0          	mov    -0x30(%rbp),%rdx
    4667:	48 89 d0             	mov    %rdx,%rax
    466a:	48 01 c0             	add    %rax,%rax
    466d:	48 01 d0             	add    %rdx,%rax
    4670:	48 c1 e0 03          	shl    $0x3,%rax
    4674:	48 89 c2             	mov    %rax,%rdx
    4677:	48 8b 45 d8          	mov    -0x28(%rbp),%rax
    467b:	48 01 c2             	add    %rax,%rdx
    467e:	48 8b 45 a8          	mov    -0x58(%rbp),%rax
    4682:	48 89 d6             	mov    %rdx,%rsi
    4685:	48 89 c7             	mov    %rax,%rdi
    4688:	e8 a1 08 00 00       	callq  4f2e <_ZNSt16allocator_traitsISaISt6vectorIjSaIjEEEE7destroyIS2_EEvRS3_PT_>
    468d:	eb 22                	jmp    46b1 <_ZNSt6vectorIS_IjSaIjEESaIS1_EE17_M_realloc_insertIJRKS1_EEEvN9__gnu_cxx17__normal_iteratorIPS1_S3_EEDpOT_+0x23d>
    468f:	48 8b 45 a8          	mov    -0x58(%rbp),%rax
    4693:	48 89 c7             	mov    %rax,%rdi
    4696:	e8 81 08 00 00       	callq  4f1c <_ZNSt12_Vector_baseISt6vectorIjSaIjEESaIS2_EE19_M_get_Tp_allocatorEv>
    469b:	48 89 c2             	mov    %rax,%rdx
    469e:	48 8b 4d e0          	mov    -0x20(%rbp),%rcx
    46a2:	48 8b 45 d8          	mov    -0x28(%rbp),%rax
    46a6:	48 89 ce             	mov    %rcx,%rsi
    46a9:	48 89 c7             	mov    %rax,%rdi
    46ac:	e8 a7 08 00 00       	callq  4f58 <_ZSt8_DestroyIPSt6vectorIjSaIjEES2_EvT_S4_RSaIT0_E>
    46b1:	48 8b 45 a8          	mov    -0x58(%rbp),%rax
    46b5:	48 8b 55 b8          	mov    -0x48(%rbp),%rdx
    46b9:	48 8b 4d d8          	mov    -0x28(%rbp),%rcx
    46bd:	48 89 ce             	mov    %rcx,%rsi
    46c0:	48 89 c7             	mov    %rax,%rdi
    46c3:	e8 94 fb ff ff       	callq  425c <_ZNSt12_Vector_baseISt6vectorIjSaIjEESaIS2_EE13_M_deallocateEPS2_m>
    46c8:	e8 33 de ff ff       	callq  2500 <__cxa_rethrow@plt>
    46cd:	f3 0f 1e fa          	endbr64 
    46d1:	48 89 c3             	mov    %rax,%rbx
    46d4:	e8 77 de ff ff       	callq  2550 <__cxa_end_catch@plt>
    46d9:	48 89 d8             	mov    %rbx,%rax
    46dc:	48 89 c7             	mov    %rax,%rdi
    46df:	e8 7c de ff ff       	callq  2560 <_Unwind_Resume@plt>
    46e4:	e8 d7 dd ff ff       	callq  24c0 <__stack_chk_fail@plt>
    46e9:	48 8b 5d f8          	mov    -0x8(%rbp),%rbx
    46ed:	c9                   	leaveq 
    46ee:	c3                   	retq   
    46ef:	90                   	nop

00000000000046f0 <_ZNSt6vectorIjSaIjEE15_M_erase_at_endEPj>:
    46f0:	f3 0f 1e fa          	endbr64 
    46f4:	55                   	push   %rbp
    46f5:	48 89 e5             	mov    %rsp,%rbp
    46f8:	48 83 ec 20          	sub    $0x20,%rsp
    46fc:	48 89 7d e8          	mov    %rdi,-0x18(%rbp)
    4700:	48 89 75 e0          	mov    %rsi,-0x20(%rbp)
    4704:	48 8b 45 e8          	mov    -0x18(%rbp),%rax
    4708:	48 8b 40 08          	mov    0x8(%rax),%rax
    470c:	48 2b 45 e0          	sub    -0x20(%rbp),%rax
    4710:	48 c1 f8 02          	sar    $0x2,%rax
    4714:	48 89 45 f8          	mov    %rax,-0x8(%rbp)
    4718:	48 83 7d f8 00       	cmpq   $0x0,-0x8(%rbp)
    471d:	74 32                	je     4751 <_ZNSt6vectorIjSaIjEE15_M_erase_at_endEPj+0x61>
    471f:	48 8b 45 e8          	mov    -0x18(%rbp),%rax
    4723:	48 89 c7             	mov    %rax,%rdi
    4726:	e8 0b f3 ff ff       	callq  3a36 <_ZNSt12_Vector_baseIjSaIjEE19_M_get_Tp_allocatorEv>
    472b:	48 89 c2             	mov    %rax,%rdx
    472e:	48 8b 45 e8          	mov    -0x18(%rbp),%rax
    4732:	48 8b 48 08          	mov    0x8(%rax),%rcx
    4736:	48 8b 45 e0          	mov    -0x20(%rbp),%rax
    473a:	48 89 ce             	mov    %rcx,%rsi
    473d:	48 89 c7             	mov    %rax,%rdi
    4740:	e8 03 f3 ff ff       	callq  3a48 <_ZSt8_DestroyIPjjEvT_S1_RSaIT0_E>
    4745:	48 8b 45 e8          	mov    -0x18(%rbp),%rax
    4749:	48 8b 55 e0          	mov    -0x20(%rbp),%rdx
    474d:	48 89 50 08          	mov    %rdx,0x8(%rax)
    4751:	90                   	nop
    4752:	c9                   	leaveq 
    4753:	c3                   	retq   

0000000000004754 <_ZNSt16allocator_traitsISaIjEE37select_on_container_copy_constructionERKS0_>:
    4754:	f3 0f 1e fa          	endbr64 
    4758:	55                   	push   %rbp
    4759:	48 89 e5             	mov    %rsp,%rbp
    475c:	48 83 ec 10          	sub    $0x10,%rsp
    4760:	48 89 7d f8          	mov    %rdi,-0x8(%rbp)
    4764:	48 89 75 f0          	mov    %rsi,-0x10(%rbp)
    4768:	48 8b 55 f0          	mov    -0x10(%rbp),%rdx
    476c:	48 8b 45 f8          	mov    -0x8(%rbp),%rax
    4770:	48 89 d6             	mov    %rdx,%rsi
    4773:	48 89 c7             	mov    %rax,%rdi
    4776:	e8 0b 08 00 00       	callq  4f86 <_ZNSaIjEC1ERKS_>
    477b:	48 8b 45 f8          	mov    -0x8(%rbp),%rax
    477f:	c9                   	leaveq 
    4780:	c3                   	retq   
    4781:	90                   	nop

0000000000004782 <_ZNSt12_Vector_baseIjSaIjEE12_Vector_implC1ERKS0_>:
    4782:	f3 0f 1e fa          	endbr64 
    4786:	55                   	push   %rbp
    4787:	48 89 e5             	mov    %rsp,%rbp
    478a:	48 83 ec 10          	sub    $0x10,%rsp
    478e:	48 89 7d f8          	mov    %rdi,-0x8(%rbp)
    4792:	48 89 75 f0          	mov    %rsi,-0x10(%rbp)
    4796:	48 8b 55 f0          	mov    -0x10(%rbp),%rdx
    479a:	48 8b 45 f8          	mov    -0x8(%rbp),%rax
    479e:	48 89 d6             	mov    %rdx,%rsi
    47a1:	48 89 c7             	mov    %rax,%rdi
    47a4:	e8 dd 07 00 00       	callq  4f86 <_ZNSaIjEC1ERKS_>
    47a9:	48 8b 45 f8          	mov    -0x8(%rbp),%rax
    47ad:	48 89 c7             	mov    %rax,%rdi
    47b0:	e8 05 f2 ff ff       	callq  39ba <_ZNSt12_Vector_baseIjSaIjEE17_Vector_impl_dataC1Ev>
    47b5:	90                   	nop
    47b6:	c9                   	leaveq 
    47b7:	c3                   	retq   

00000000000047b8 <_ZNSt12_Vector_baseIjSaIjEE17_M_create_storageEm>:
    47b8:	f3 0f 1e fa          	endbr64 
    47bc:	55                   	push   %rbp
    47bd:	48 89 e5             	mov    %rsp,%rbp
    47c0:	48 83 ec 10          	sub    $0x10,%rsp
    47c4:	48 89 7d f8          	mov    %rdi,-0x8(%rbp)
    47c8:	48 89 75 f0          	mov    %rsi,-0x10(%rbp)
    47cc:	48 8b 55 f0          	mov    -0x10(%rbp),%rdx
    47d0:	48 8b 45 f8          	mov    -0x8(%rbp),%rax
    47d4:	48 89 d6             	mov    %rdx,%rsi
    47d7:	48 89 c7             	mov    %rax,%rdi
    47da:	e8 d1 07 00 00       	callq  4fb0 <_ZNSt12_Vector_baseIjSaIjEE11_M_allocateEm>
    47df:	48 8b 55 f8          	mov    -0x8(%rbp),%rdx
    47e3:	48 89 02             	mov    %rax,(%rdx)
    47e6:	48 8b 45 f8          	mov    -0x8(%rbp),%rax
    47ea:	48 8b 10             	mov    (%rax),%rdx
    47ed:	48 8b 45 f8          	mov    -0x8(%rbp),%rax
    47f1:	48 89 50 08          	mov    %rdx,0x8(%rax)
    47f5:	48 8b 45 f8          	mov    -0x8(%rbp),%rax
    47f9:	48 8b 10             	mov    (%rax),%rdx
    47fc:	48 8b 45 f0          	mov    -0x10(%rbp),%rax
    4800:	48 c1 e0 02          	shl    $0x2,%rax
    4804:	48 01 c2             	add    %rax,%rdx
    4807:	48 8b 45 f8          	mov    -0x8(%rbp),%rax
    480b:	48 89 50 10          	mov    %rdx,0x10(%rax)
    480f:	90                   	nop
    4810:	c9                   	leaveq 
    4811:	c3                   	retq   

0000000000004812 <_ZN9__gnu_cxx17__normal_iteratorIPKjSt6vectorIjSaIjEEEC1ERKS2_>:
    4812:	f3 0f 1e fa          	endbr64 
    4816:	55                   	push   %rbp
    4817:	48 89 e5             	mov    %rsp,%rbp
    481a:	48 89 7d f8          	mov    %rdi,-0x8(%rbp)
    481e:	48 89 75 f0          	mov    %rsi,-0x10(%rbp)
    4822:	48 8b 45 f0          	mov    -0x10(%rbp),%rax
    4826:	48 8b 10             	mov    (%rax),%rdx
    4829:	48 8b 45 f8          	mov    -0x8(%rbp),%rax
    482d:	48 89 10             	mov    %rdx,(%rax)
    4830:	90                   	nop
    4831:	5d                   	pop    %rbp
    4832:	c3                   	retq   

0000000000004833 <_ZSt18uninitialized_copyIN9__gnu_cxx17__normal_iteratorIPKjSt6vectorIjSaIjEEEEPjET0_T_SA_S9_>:
    4833:	f3 0f 1e fa          	endbr64 
    4837:	55                   	push   %rbp
    4838:	48 89 e5             	mov    %rsp,%rbp
    483b:	48 83 ec 30          	sub    $0x30,%rsp
    483f:	48 89 7d e8          	mov    %rdi,-0x18(%rbp)
    4843:	48 89 75 e0          	mov    %rsi,-0x20(%rbp)
    4847:	48 89 55 d8          	mov    %rdx,-0x28(%rbp)
    484b:	c6 45 ff 01          	movb   $0x1,-0x1(%rbp)
    484f:	48 8b 55 d8          	mov    -0x28(%rbp),%rdx
    4853:	48 8b 4d e0          	mov    -0x20(%rbp),%rcx
    4857:	48 8b 45 e8          	mov    -0x18(%rbp),%rax
    485b:	48 89 ce             	mov    %rcx,%rsi
    485e:	48 89 c7             	mov    %rax,%rdi
    4861:	e8 81 07 00 00       	callq  4fe7 <_ZNSt20__uninitialized_copyILb1EE13__uninit_copyIN9__gnu_cxx17__normal_iteratorIPKjSt6vectorIjSaIjEEEEPjEET0_T_SC_SB_>
    4866:	c9                   	leaveq 
    4867:	c3                   	retq   

0000000000004868 <_ZNKSt24uniform_int_distributionIjE10param_type1bEv>:
    4868:	f3 0f 1e fa          	endbr64 
    486c:	55                   	push   %rbp
    486d:	48 89 e5             	mov    %rsp,%rbp
    4870:	48 89 7d f8          	mov    %rdi,-0x8(%rbp)
    4874:	48 8b 45 f8          	mov    -0x8(%rbp),%rax
    4878:	8b 40 04             	mov    0x4(%rax),%eax
    487b:	5d                   	pop    %rbp
    487c:	c3                   	retq   
    487d:	90                   	nop

000000000000487e <_ZNKSt24uniform_int_distributionIjE10param_type1aEv>:
    487e:	f3 0f 1e fa          	endbr64 
    4882:	55                   	push   %rbp
    4883:	48 89 e5             	mov    %rsp,%rbp
    4886:	48 89 7d f8          	mov    %rdi,-0x8(%rbp)
    488a:	48 8b 45 f8          	mov    -0x8(%rbp),%rax
    488e:	8b 00                	mov    (%rax),%eax
    4890:	5d                   	pop    %rbp
    4891:	c3                   	retq   

0000000000004892 <_ZNSt26linear_congruential_engineImLm16807ELm0ELm2147483647EEclEv>:
    4892:	f3 0f 1e fa          	endbr64 
    4896:	55                   	push   %rbp
    4897:	48 89 e5             	mov    %rsp,%rbp
    489a:	48 83 ec 10          	sub    $0x10,%rsp
    489e:	48 89 7d f8          	mov    %rdi,-0x8(%rbp)
    48a2:	48 8b 45 f8          	mov    -0x8(%rbp),%rax
    48a6:	48 8b 00             	mov    (%rax),%rax
    48a9:	48 89 c7             	mov    %rax,%rdi
    48ac:	e8 67 07 00 00       	callq  5018 <_ZNSt8__detail5__modImLm2147483647ELm16807ELm0EEET_S1_>
    48b1:	48 8b 55 f8          	mov    -0x8(%rbp),%rdx
    48b5:	48 89 02             	mov    %rax,(%rdx)
    48b8:	48 8b 45 f8          	mov    -0x8(%rbp),%rax
    48bc:	48 8b 00             	mov    (%rax),%rax
    48bf:	c9                   	leaveq 
    48c0:	c3                   	retq   

00000000000048c1 <_ZSt8distanceIPKcENSt15iterator_traitsIT_E15difference_typeES3_S3_>:
    48c1:	f3 0f 1e fa          	endbr64 
    48c5:	55                   	push   %rbp
    48c6:	48 89 e5             	mov    %rsp,%rbp
    48c9:	48 83 ec 10          	sub    $0x10,%rsp
    48cd:	48 89 7d f8          	mov    %rdi,-0x8(%rbp)
    48d1:	48 89 75 f0          	mov    %rsi,-0x10(%rbp)
    48d5:	48 8d 45 f8          	lea    -0x8(%rbp),%rax
    48d9:	48 89 c7             	mov    %rax,%rdi
    48dc:	e8 73 07 00 00       	callq  5054 <_ZSt19__iterator_categoryIPKcENSt15iterator_traitsIT_E17iterator_categoryERKS3_>
    48e1:	48 8b 45 f8          	mov    -0x8(%rbp),%rax
    48e5:	48 8b 55 f0          	mov    -0x10(%rbp),%rdx
    48e9:	48 89 d6             	mov    %rdx,%rsi
    48ec:	48 89 c7             	mov    %rax,%rdi
    48ef:	e8 6e 07 00 00       	callq  5062 <_ZSt10__distanceIPKcENSt15iterator_traitsIT_E15difference_typeES3_S3_St26random_access_iterator_tag>
    48f4:	c9                   	leaveq 
    48f5:	c3                   	retq   

00000000000048f6 <_ZNSt7__cxx1112basic_stringIcSt11char_traitsIcESaIcEE12_M_constructIPKcEEvT_S8_St20forward_iterator_tag>:
    48f6:	f3 0f 1e fa          	endbr64 
    48fa:	55                   	push   %rbp
    48fb:	48 89 e5             	mov    %rsp,%rbp
    48fe:	53                   	push   %rbx
    48ff:	48 83 ec 38          	sub    $0x38,%rsp
    4903:	48 89 7d d8          	mov    %rdi,-0x28(%rbp)
    4907:	48 89 75 d0          	mov    %rsi,-0x30(%rbp)
    490b:	48 89 55 c8          	mov    %rdx,-0x38(%rbp)
    490f:	64 48 8b 04 25 28 00 	mov    %fs:0x28,%rax
    4916:	00 00 
    4918:	48 89 45 e8          	mov    %rax,-0x18(%rbp)
    491c:	31 c0                	xor    %eax,%eax
    491e:	48 8b 45 d0          	mov    -0x30(%rbp),%rax
    4922:	48 89 c7             	mov    %rax,%rdi
    4925:	e8 14 07 00 00       	callq  503e <_ZN9__gnu_cxx17__is_null_pointerIKcEEbPT_>
    492a:	84 c0                	test   %al,%al
    492c:	74 11                	je     493f <_ZNSt7__cxx1112basic_stringIcSt11char_traitsIcESaIcEE12_M_constructIPKcEEvT_S8_St20forward_iterator_tag+0x49>
    492e:	48 8b 45 d0          	mov    -0x30(%rbp),%rax
    4932:	48 3b 45 c8          	cmp    -0x38(%rbp),%rax
    4936:	74 07                	je     493f <_ZNSt7__cxx1112basic_stringIcSt11char_traitsIcESaIcEE12_M_constructIPKcEEvT_S8_St20forward_iterator_tag+0x49>
    4938:	b8 01 00 00 00       	mov    $0x1,%eax
    493d:	eb 05                	jmp    4944 <_ZNSt7__cxx1112basic_stringIcSt11char_traitsIcESaIcEE12_M_constructIPKcEEvT_S8_St20forward_iterator_tag+0x4e>
    493f:	b8 00 00 00 00       	mov    $0x0,%eax
    4944:	84 c0                	test   %al,%al
    4946:	74 0f                	je     4957 <_ZNSt7__cxx1112basic_stringIcSt11char_traitsIcESaIcEE12_M_constructIPKcEEvT_S8_St20forward_iterator_tag+0x61>
    4948:	48 8d 05 31 17 00 00 	lea    0x1731(%rip),%rax        # 6080 <_ZN6__pstl9execution2v1L5unseqE+0x75>
    494f:	48 89 c7             	mov    %rax,%rdi
    4952:	e8 79 da ff ff       	callq  23d0 <_ZSt19__throw_logic_errorPKc@plt>
    4957:	48 8b 55 c8          	mov    -0x38(%rbp),%rdx
    495b:	48 8b 45 d0          	mov    -0x30(%rbp),%rax
    495f:	48 89 d6             	mov    %rdx,%rsi
    4962:	48 89 c7             	mov    %rax,%rdi
    4965:	e8 57 ff ff ff       	callq  48c1 <_ZSt8distanceIPKcENSt15iterator_traitsIT_E15difference_typeES3_S3_>
    496a:	48 89 45 e0          	mov    %rax,-0x20(%rbp)
    496e:	48 8b 45 e0          	mov    -0x20(%rbp),%rax
    4972:	48 83 f8 0f          	cmp    $0xf,%rax
    4976:	76 3d                	jbe    49b5 <_ZNSt7__cxx1112basic_stringIcSt11char_traitsIcESaIcEE12_M_constructIPKcEEvT_S8_St20forward_iterator_tag+0xbf>
    4978:	48 8d 4d e0          	lea    -0x20(%rbp),%rcx
    497c:	48 8b 45 d8          	mov    -0x28(%rbp),%rax
    4980:	ba 00 00 00 00       	mov    $0x0,%edx
    4985:	48 89 ce             	mov    %rcx,%rsi
    4988:	48 89 c7             	mov    %rax,%rdi
    498b:	e8 f0 db ff ff       	callq  2580 <_ZNSt7__cxx1112basic_stringIcSt11char_traitsIcESaIcEE9_M_createERmm@plt>
    4990:	48 89 c2             	mov    %rax,%rdx
    4993:	48 8b 45 d8          	mov    -0x28(%rbp),%rax
    4997:	48 89 d6             	mov    %rdx,%rsi
    499a:	48 89 c7             	mov    %rax,%rdi
    499d:	e8 6e da ff ff       	callq  2410 <_ZNSt7__cxx1112basic_stringIcSt11char_traitsIcESaIcEE7_M_dataEPc@plt>
    49a2:	48 8b 55 e0          	mov    -0x20(%rbp),%rdx
    49a6:	48 8b 45 d8          	mov    -0x28(%rbp),%rax
    49aa:	48 89 d6             	mov    %rdx,%rsi
    49ad:	48 89 c7             	mov    %rax,%rdi
    49b0:	e8 fb db ff ff       	callq  25b0 <_ZNSt7__cxx1112basic_stringIcSt11char_traitsIcESaIcEE11_M_capacityEm@plt>
    49b5:	48 8b 45 d8          	mov    -0x28(%rbp),%rax
    49b9:	48 89 c7             	mov    %rax,%rdi
    49bc:	e8 df da ff ff       	callq  24a0 <_ZNKSt7__cxx1112basic_stringIcSt11char_traitsIcESaIcEE7_M_dataEv@plt>
    49c1:	48 89 c1             	mov    %rax,%rcx
    49c4:	48 8b 55 c8          	mov    -0x38(%rbp),%rdx
    49c8:	48 8b 45 d0          	mov    -0x30(%rbp),%rax
    49cc:	48 89 c6             	mov    %rax,%rsi
    49cf:	48 89 cf             	mov    %rcx,%rdi
    49d2:	e8 d9 da ff ff       	callq  24b0 <_ZNSt7__cxx1112basic_stringIcSt11char_traitsIcESaIcEE13_S_copy_charsEPcPKcS7_@plt>
    49d7:	48 8b 55 e0          	mov    -0x20(%rbp),%rdx
    49db:	48 8b 45 d8          	mov    -0x28(%rbp),%rax
    49df:	48 89 d6             	mov    %rdx,%rsi
    49e2:	48 89 c7             	mov    %rax,%rdi
    49e5:	e8 d6 d9 ff ff       	callq  23c0 <_ZNSt7__cxx1112basic_stringIcSt11char_traitsIcESaIcEE13_M_set_lengthEm@plt>
    49ea:	90                   	nop
    49eb:	48 8b 45 e8          	mov    -0x18(%rbp),%rax
    49ef:	64 48 2b 04 25 28 00 	sub    %fs:0x28,%rax
    49f6:	00 00 
    49f8:	74 3b                	je     4a35 <_ZNSt7__cxx1112basic_stringIcSt11char_traitsIcESaIcEE12_M_constructIPKcEEvT_S8_St20forward_iterator_tag+0x13f>
    49fa:	eb 34                	jmp    4a30 <_ZNSt7__cxx1112basic_stringIcSt11char_traitsIcESaIcEE12_M_constructIPKcEEvT_S8_St20forward_iterator_tag+0x13a>
    49fc:	f3 0f 1e fa          	endbr64 
    4a00:	48 89 c7             	mov    %rax,%rdi
    4a03:	e8 68 d9 ff ff       	callq  2370 <__cxa_begin_catch@plt>
    4a08:	48 8b 45 d8          	mov    -0x28(%rbp),%rax
    4a0c:	48 89 c7             	mov    %rax,%rdi
    4a0f:	e8 bc da ff ff       	callq  24d0 <_ZNSt7__cxx1112basic_stringIcSt11char_traitsIcESaIcEE10_M_disposeEv@plt>
    4a14:	e8 e7 da ff ff       	callq  2500 <__cxa_rethrow@plt>
    4a19:	f3 0f 1e fa          	endbr64 
    4a1d:	48 89 c3             	mov    %rax,%rbx
    4a20:	e8 2b db ff ff       	callq  2550 <__cxa_end_catch@plt>
    4a25:	48 89 d8             	mov    %rbx,%rax
    4a28:	48 89 c7             	mov    %rax,%rdi
    4a2b:	e8 30 db ff ff       	callq  2560 <_Unwind_Resume@plt>
    4a30:	e8 8b da ff ff       	callq  24c0 <__stack_chk_fail@plt>
    4a35:	48 8b 5d f8          	mov    -0x8(%rbp),%rbx
    4a39:	c9                   	leaveq 
    4a3a:	c3                   	retq   
    4a3b:	90                   	nop

0000000000004a3c <_ZN9__gnu_cxx13new_allocatorIjE10deallocateEPjm>:
    4a3c:	f3 0f 1e fa          	endbr64 
    4a40:	55                   	push   %rbp
    4a41:	48 89 e5             	mov    %rsp,%rbp
    4a44:	48 83 ec 20          	sub    $0x20,%rsp
    4a48:	48 89 7d f8          	mov    %rdi,-0x8(%rbp)
    4a4c:	48 89 75 f0          	mov    %rsi,-0x10(%rbp)
    4a50:	48 89 55 e8          	mov    %rdx,-0x18(%rbp)
    4a54:	48 8b 45 e8          	mov    -0x18(%rbp),%rax
    4a58:	48 8d 14 85 00 00 00 	lea    0x0(,%rax,4),%rdx
    4a5f:	00 
    4a60:	48 8b 45 f0          	mov    -0x10(%rbp),%rax
    4a64:	48 89 d6             	mov    %rdx,%rsi
    4a67:	48 89 c7             	mov    %rax,%rdi
    4a6a:	e8 f1 d9 ff ff       	callq  2460 <_ZdlPvm@plt>
    4a6f:	c9                   	leaveq 
    4a70:	c3                   	retq   

0000000000004a71 <_ZNSt12_Destroy_auxILb1EE9__destroyIPjEEvT_S3_>:
    4a71:	f3 0f 1e fa          	endbr64 
    4a75:	55                   	push   %rbp
    4a76:	48 89 e5             	mov    %rsp,%rbp
    4a79:	48 89 7d f8          	mov    %rdi,-0x8(%rbp)
    4a7d:	48 89 75 f0          	mov    %rsi,-0x10(%rbp)
    4a81:	90                   	nop
    4a82:	5d                   	pop    %rbp
    4a83:	c3                   	retq   

0000000000004a84 <_ZNSt8__detail5__modImLm2147483647ELm1ELm0EEET_S1_>:
    4a84:	f3 0f 1e fa          	endbr64 
    4a88:	55                   	push   %rbp
    4a89:	48 89 e5             	mov    %rsp,%rbp
    4a8c:	48 83 ec 20          	sub    $0x20,%rsp
    4a90:	48 89 7d e8          	mov    %rdi,-0x18(%rbp)
    4a94:	48 c7 45 f8 01 00 00 	movq   $0x1,-0x8(%rbp)
    4a9b:	00 
    4a9c:	48 8b 45 e8          	mov    -0x18(%rbp),%rax
    4aa0:	48 89 c7             	mov    %rax,%rdi
    4aa3:	e8 d4 05 00 00       	callq  507c <_ZNSt8__detail4_ModImLm2147483647ELm1ELm0ELb1ELb1EE6__calcEm>
    4aa8:	c9                   	leaveq 
    4aa9:	c3                   	retq   

0000000000004aaa <_ZN9__gnu_cxx13new_allocatorISt6vectorIjSaIjEEEC1Ev>:
    4aaa:	f3 0f 1e fa          	endbr64 
    4aae:	55                   	push   %rbp
    4aaf:	48 89 e5             	mov    %rsp,%rbp
    4ab2:	48 89 7d f8          	mov    %rdi,-0x8(%rbp)
    4ab6:	90                   	nop
    4ab7:	5d                   	pop    %rbp
    4ab8:	c3                   	retq   

0000000000004ab9 <_ZNSt16allocator_traitsISaISt6vectorIjSaIjEEEE10deallocateERS3_PS2_m>:
    4ab9:	f3 0f 1e fa          	endbr64 
    4abd:	55                   	push   %rbp
    4abe:	48 89 e5             	mov    %rsp,%rbp
    4ac1:	48 83 ec 20          	sub    $0x20,%rsp
    4ac5:	48 89 7d f8          	mov    %rdi,-0x8(%rbp)
    4ac9:	48 89 75 f0          	mov    %rsi,-0x10(%rbp)
    4acd:	48 89 55 e8          	mov    %rdx,-0x18(%rbp)
    4ad1:	48 8b 55 e8          	mov    -0x18(%rbp),%rdx
    4ad5:	48 8b 4d f0          	mov    -0x10(%rbp),%rcx
    4ad9:	48 8b 45 f8          	mov    -0x8(%rbp),%rax
    4add:	48 89 ce             	mov    %rcx,%rsi
    4ae0:	48 89 c7             	mov    %rax,%rdi
    4ae3:	e8 ea 05 00 00       	callq  50d2 <_ZN9__gnu_cxx13new_allocatorISt6vectorIjSaIjEEE10deallocateEPS3_m>
    4ae8:	90                   	nop
    4ae9:	c9                   	leaveq 
    4aea:	c3                   	retq   

0000000000004aeb <_ZNSt16allocator_traitsISaIjEE9constructIjJRKjEEEvRS0_PT_DpOT0_>:
    4aeb:	f3 0f 1e fa          	endbr64 
    4aef:	55                   	push   %rbp
    4af0:	48 89 e5             	mov    %rsp,%rbp
    4af3:	48 83 ec 20          	sub    $0x20,%rsp
    4af7:	48 89 7d f8          	mov    %rdi,-0x8(%rbp)
    4afb:	48 89 75 f0          	mov    %rsi,-0x10(%rbp)
    4aff:	48 89 55 e8          	mov    %rdx,-0x18(%rbp)
    4b03:	48 8b 45 e8          	mov    -0x18(%rbp),%rax
    4b07:	48 89 c7             	mov    %rax,%rdi
    4b0a:	e8 00 06 00 00       	callq  510f <_ZSt7forwardIRKjEOT_RNSt16remove_referenceIS2_E4typeE>
    4b0f:	48 89 c2             	mov    %rax,%rdx
    4b12:	48 8b 4d f0          	mov    -0x10(%rbp),%rcx
    4b16:	48 8b 45 f8          	mov    -0x8(%rbp),%rax
    4b1a:	48 89 ce             	mov    %rcx,%rsi
    4b1d:	48 89 c7             	mov    %rax,%rdi
    4b20:	e8 fd 05 00 00       	callq  5122 <_ZN9__gnu_cxx13new_allocatorIjE9constructIjJRKjEEEvPT_DpOT0_>
    4b25:	90                   	nop
    4b26:	c9                   	leaveq 
    4b27:	c3                   	retq   

0000000000004b28 <_ZNSt6vectorIjSaIjEE17_M_realloc_insertIJRKjEEEvN9__gnu_cxx17__normal_iteratorIPjS1_EEDpOT_>:
    4b28:	f3 0f 1e fa          	endbr64 
    4b2c:	55                   	push   %rbp
    4b2d:	48 89 e5             	mov    %rsp,%rbp
    4b30:	53                   	push   %rbx
    4b31:	48 83 ec 68          	sub    $0x68,%rsp
    4b35:	48 89 7d a8          	mov    %rdi,-0x58(%rbp)
    4b39:	48 89 75 a0          	mov    %rsi,-0x60(%rbp)
    4b3d:	48 89 55 98          	mov    %rdx,-0x68(%rbp)
    4b41:	64 48 8b 04 25 28 00 	mov    %fs:0x28,%rax
    4b48:	00 00 
    4b4a:	48 89 45 e8          	mov    %rax,-0x18(%rbp)
    4b4e:	31 c0                	xor    %eax,%eax
    4b50:	48 8b 45 a8          	mov    -0x58(%rbp),%rax
    4b54:	48 8d 15 08 15 00 00 	lea    0x1508(%rip),%rdx        # 6063 <_ZN6__pstl9execution2v1L5unseqE+0x58>
    4b5b:	be 01 00 00 00       	mov    $0x1,%esi
    4b60:	48 89 c7             	mov    %rax,%rdi
    4b63:	e8 fc 05 00 00       	callq  5164 <_ZNKSt6vectorIjSaIjEE12_M_check_lenEmPKc>
    4b68:	48 89 45 b8          	mov    %rax,-0x48(%rbp)
    4b6c:	48 8b 45 a8          	mov    -0x58(%rbp),%rax
    4b70:	48 8b 00             	mov    (%rax),%rax
    4b73:	48 89 45 c0          	mov    %rax,-0x40(%rbp)
    4b77:	48 8b 45 a8          	mov    -0x58(%rbp),%rax
    4b7b:	48 8b 40 08          	mov    0x8(%rax),%rax
    4b7f:	48 89 45 c8          	mov    %rax,-0x38(%rbp)
    4b83:	48 8b 45 a8          	mov    -0x58(%rbp),%rax
    4b87:	48 89 c7             	mov    %rax,%rdi
    4b8a:	e8 15 ec ff ff       	callq  37a4 <_ZNSt6vectorIjSaIjEE5beginEv>
    4b8f:	48 89 45 b0          	mov    %rax,-0x50(%rbp)
    4b93:	48 8d 55 b0          	lea    -0x50(%rbp),%rdx
    4b97:	48 8d 45 a0          	lea    -0x60(%rbp),%rax
    4b9b:	48 89 d6             	mov    %rdx,%rsi
    4b9e:	48 89 c7             	mov    %rax,%rdi
    4ba1:	e8 ad 06 00 00       	callq  5253 <_ZN9__gnu_cxxmiIPjSt6vectorIjSaIjEEEENS_17__normal_iteratorIT_T0_E15difference_typeERKS8_SB_>
    4ba6:	48 89 45 d0          	mov    %rax,-0x30(%rbp)
    4baa:	48 8b 45 a8          	mov    -0x58(%rbp),%rax
    4bae:	48 8b 55 b8          	mov    -0x48(%rbp),%rdx
    4bb2:	48 89 d6             	mov    %rdx,%rsi
    4bb5:	48 89 c7             	mov    %rax,%rdi
    4bb8:	e8 f3 03 00 00       	callq  4fb0 <_ZNSt12_Vector_baseIjSaIjEE11_M_allocateEm>
    4bbd:	48 89 45 d8          	mov    %rax,-0x28(%rbp)
    4bc1:	48 8b 45 d8          	mov    -0x28(%rbp),%rax
    4bc5:	48 89 45 e0          	mov    %rax,-0x20(%rbp)
    4bc9:	48 8b 45 98          	mov    -0x68(%rbp),%rax
    4bcd:	48 89 c7             	mov    %rax,%rdi
    4bd0:	e8 3a 05 00 00       	callq  510f <_ZSt7forwardIRKjEOT_RNSt16remove_referenceIS2_E4typeE>
    4bd5:	48 89 c2             	mov    %rax,%rdx
    4bd8:	48 8b 45 d0          	mov    -0x30(%rbp),%rax
    4bdc:	48 8d 0c 85 00 00 00 	lea    0x0(,%rax,4),%rcx
    4be3:	00 
    4be4:	48 8b 45 d8          	mov    -0x28(%rbp),%rax
    4be8:	48 01 c1             	add    %rax,%rcx
    4beb:	48 8b 45 a8          	mov    -0x58(%rbp),%rax
    4bef:	48 89 ce             	mov    %rcx,%rsi
    4bf2:	48 89 c7             	mov    %rax,%rdi
    4bf5:	e8 f1 fe ff ff       	callq  4aeb <_ZNSt16allocator_traitsISaIjEE9constructIjJRKjEEEvRS0_PT_DpOT0_>
    4bfa:	48 c7 45 e0 00 00 00 	movq   $0x0,-0x20(%rbp)
    4c01:	00 
    4c02:	48 8b 45 a8          	mov    -0x58(%rbp),%rax
    4c06:	48 89 c7             	mov    %rax,%rdi
    4c09:	e8 28 ee ff ff       	callq  3a36 <_ZNSt12_Vector_baseIjSaIjEE19_M_get_Tp_allocatorEv>
    4c0e:	48 89 c3             	mov    %rax,%rbx
    4c11:	48 8d 45 a0          	lea    -0x60(%rbp),%rax
    4c15:	48 89 c7             	mov    %rax,%rdi
    4c18:	e8 c7 f2 ff ff       	callq  3ee4 <_ZNK9__gnu_cxx17__normal_iteratorIPjSt6vectorIjSaIjEEE4baseEv>
    4c1d:	48 8b 30             	mov    (%rax),%rsi
    4c20:	48 8b 55 d8          	mov    -0x28(%rbp),%rdx
    4c24:	48 8b 45 c0          	mov    -0x40(%rbp),%rax
    4c28:	48 89 d9             	mov    %rbx,%rcx
    4c2b:	48 89 c7             	mov    %rax,%rdi
    4c2e:	e8 63 06 00 00       	callq  5296 <_ZNSt6vectorIjSaIjEE11_S_relocateEPjS2_S2_RS0_>
    4c33:	48 89 45 e0          	mov    %rax,-0x20(%rbp)
    4c37:	48 83 45 e0 04       	addq   $0x4,-0x20(%rbp)
    4c3c:	48 8b 45 a8          	mov    -0x58(%rbp),%rax
    4c40:	48 89 c7             	mov    %rax,%rdi
    4c43:	e8 ee ed ff ff       	callq  3a36 <_ZNSt12_Vector_baseIjSaIjEE19_M_get_Tp_allocatorEv>
    4c48:	48 89 c3             	mov    %rax,%rbx
    4c4b:	48 8d 45 a0          	lea    -0x60(%rbp),%rax
    4c4f:	48 89 c7             	mov    %rax,%rdi
    4c52:	e8 8d f2 ff ff       	callq  3ee4 <_ZNK9__gnu_cxx17__normal_iteratorIPjSt6vectorIjSaIjEEE4baseEv>
    4c57:	48 8b 00             	mov    (%rax),%rax
    4c5a:	48 8b 55 e0          	mov    -0x20(%rbp),%rdx
    4c5e:	48 8b 75 c8          	mov    -0x38(%rbp),%rsi
    4c62:	48 89 d9             	mov    %rbx,%rcx
    4c65:	48 89 c7             	mov    %rax,%rdi
    4c68:	e8 29 06 00 00       	callq  5296 <_ZNSt6vectorIjSaIjEE11_S_relocateEPjS2_S2_RS0_>
    4c6d:	48 89 45 e0          	mov    %rax,-0x20(%rbp)
    4c71:	48 8b 45 a8          	mov    -0x58(%rbp),%rax
    4c75:	48 8b 55 a8          	mov    -0x58(%rbp),%rdx
    4c79:	48 8b 52 10          	mov    0x10(%rdx),%rdx
    4c7d:	48 2b 55 c0          	sub    -0x40(%rbp),%rdx
    4c81:	48 c1 fa 02          	sar    $0x2,%rdx
    4c85:	48 8b 4d c0          	mov    -0x40(%rbp),%rcx
    4c89:	48 89 ce             	mov    %rcx,%rsi
    4c8c:	48 89 c7             	mov    %rax,%rdi
    4c8f:	e8 68 ed ff ff       	callq  39fc <_ZNSt12_Vector_baseIjSaIjEE13_M_deallocateEPjm>
    4c94:	48 8b 45 a8          	mov    -0x58(%rbp),%rax
    4c98:	48 8b 55 d8          	mov    -0x28(%rbp),%rdx
    4c9c:	48 89 10             	mov    %rdx,(%rax)
    4c9f:	48 8b 45 a8          	mov    -0x58(%rbp),%rax
    4ca3:	48 8b 55 e0          	mov    -0x20(%rbp),%rdx
    4ca7:	48 89 50 08          	mov    %rdx,0x8(%rax)
    4cab:	48 8b 45 b8          	mov    -0x48(%rbp),%rax
    4caf:	48 8d 14 85 00 00 00 	lea    0x0(,%rax,4),%rdx
    4cb6:	00 
    4cb7:	48 8b 45 d8          	mov    -0x28(%rbp),%rax
    4cbb:	48 01 c2             	add    %rax,%rdx
    4cbe:	48 8b 45 a8          	mov    -0x58(%rbp),%rax
    4cc2:	48 89 50 10          	mov    %rdx,0x10(%rax)
    4cc6:	90                   	nop
    4cc7:	48 8b 45 e8          	mov    -0x18(%rbp),%rax
    4ccb:	64 48 2b 04 25 28 00 	sub    %fs:0x28,%rax
    4cd2:	00 00 
    4cd4:	74 05                	je     4cdb <_ZNSt6vectorIjSaIjEE17_M_realloc_insertIJRKjEEEvN9__gnu_cxx17__normal_iteratorIPjS1_EEDpOT_+0x1b3>
    4cd6:	e8 e5 d7 ff ff       	callq  24c0 <__stack_chk_fail@plt>
    4cdb:	48 8b 5d f8          	mov    -0x8(%rbp),%rbx
    4cdf:	c9                   	leaveq 
    4ce0:	c3                   	retq   

0000000000004ce1 <_ZSt7forwardIRKSt6vectorIjSaIjEEEOT_RNSt16remove_referenceIS5_E4typeE>:
    4ce1:	f3 0f 1e fa          	endbr64 
    4ce5:	55                   	push   %rbp
    4ce6:	48 89 e5             	mov    %rsp,%rbp
    4ce9:	48 89 7d f8          	mov    %rdi,-0x8(%rbp)
    4ced:	48 8b 45 f8          	mov    -0x8(%rbp),%rax
    4cf1:	5d                   	pop    %rbp
    4cf2:	c3                   	retq   
    4cf3:	90                   	nop

0000000000004cf4 <_ZN9__gnu_cxx13new_allocatorISt6vectorIjSaIjEEE9constructIS3_JRKS3_EEEvPT_DpOT0_>:
    4cf4:	f3 0f 1e fa          	endbr64 
    4cf8:	55                   	push   %rbp
    4cf9:	48 89 e5             	mov    %rsp,%rbp
    4cfc:	41 55                	push   %r13
    4cfe:	41 54                	push   %r12
    4d00:	53                   	push   %rbx
    4d01:	48 83 ec 28          	sub    $0x28,%rsp
    4d05:	48 89 7d d8          	mov    %rdi,-0x28(%rbp)
    4d09:	48 89 75 d0          	mov    %rsi,-0x30(%rbp)
    4d0d:	48 89 55 c8          	mov    %rdx,-0x38(%rbp)
    4d11:	48 8b 45 c8          	mov    -0x38(%rbp),%rax
    4d15:	48 89 c7             	mov    %rax,%rdi
    4d18:	e8 c4 ff ff ff       	callq  4ce1 <_ZSt7forwardIRKSt6vectorIjSaIjEEEOT_RNSt16remove_referenceIS5_E4typeE>
    4d1d:	49 89 c5             	mov    %rax,%r13
    4d20:	48 8b 5d d0          	mov    -0x30(%rbp),%rbx
    4d24:	48 89 de             	mov    %rbx,%rsi
    4d27:	bf 18 00 00 00       	mov    $0x18,%edi
    4d2c:	e8 75 e0 ff ff       	callq  2da6 <_ZnwmPv>
    4d31:	49 89 c4             	mov    %rax,%r12
    4d34:	4c 89 ee             	mov    %r13,%rsi
    4d37:	4c 89 e7             	mov    %r12,%rdi
    4d3a:	e8 45 e9 ff ff       	callq  3684 <_ZNSt6vectorIjSaIjEEC1ERKS1_>
    4d3f:	eb 1d                	jmp    4d5e <_ZN9__gnu_cxx13new_allocatorISt6vectorIjSaIjEEE9constructIS3_JRKS3_EEEvPT_DpOT0_+0x6a>
    4d41:	f3 0f 1e fa          	endbr64 
    4d45:	49 89 c5             	mov    %rax,%r13
    4d48:	48 89 de             	mov    %rbx,%rsi
    4d4b:	4c 89 e7             	mov    %r12,%rdi
    4d4e:	e8 69 e0 ff ff       	callq  2dbc <_ZdlPvS_>
    4d53:	4c 89 e8             	mov    %r13,%rax
    4d56:	48 89 c7             	mov    %rax,%rdi
    4d59:	e8 02 d8 ff ff       	callq  2560 <_Unwind_Resume@plt>
    4d5e:	48 83 c4 28          	add    $0x28,%rsp
    4d62:	5b                   	pop    %rbx
    4d63:	41 5c                	pop    %r12
    4d65:	41 5d                	pop    %r13
    4d67:	5d                   	pop    %rbp
    4d68:	c3                   	retq   
    4d69:	90                   	nop

0000000000004d6a <_ZNKSt6vectorIS_IjSaIjEESaIS1_EE12_M_check_lenEmPKc>:
    4d6a:	f3 0f 1e fa          	endbr64 
    4d6e:	55                   	push   %rbp
    4d6f:	48 89 e5             	mov    %rsp,%rbp
    4d72:	53                   	push   %rbx
    4d73:	48 83 ec 48          	sub    $0x48,%rsp
    4d77:	48 89 7d c8          	mov    %rdi,-0x38(%rbp)
    4d7b:	48 89 75 c0          	mov    %rsi,-0x40(%rbp)
    4d7f:	48 89 55 b8          	mov    %rdx,-0x48(%rbp)
    4d83:	64 48 8b 04 25 28 00 	mov    %fs:0x28,%rax
    4d8a:	00 00 
    4d8c:	48 89 45 e8          	mov    %rax,-0x18(%rbp)
    4d90:	31 c0                	xor    %eax,%eax
    4d92:	48 8b 45 c8          	mov    -0x38(%rbp),%rax
    4d96:	48 89 c7             	mov    %rax,%rdi
    4d99:	e8 2e 05 00 00       	callq  52cc <_ZNKSt6vectorIS_IjSaIjEESaIS1_EE8max_sizeEv>
    4d9e:	48 89 c3             	mov    %rax,%rbx
    4da1:	48 8b 45 c8          	mov    -0x38(%rbp),%rax
    4da5:	48 89 c7             	mov    %rax,%rdi
    4da8:	e8 45 05 00 00       	callq  52f2 <_ZNKSt6vectorIS_IjSaIjEESaIS1_EE4sizeEv>
    4dad:	48 29 c3             	sub    %rax,%rbx
    4db0:	48 89 da             	mov    %rbx,%rdx
    4db3:	48 8b 45 c0          	mov    -0x40(%rbp),%rax
    4db7:	48 39 c2             	cmp    %rax,%rdx
    4dba:	0f 92 c0             	setb   %al
    4dbd:	84 c0                	test   %al,%al
    4dbf:	74 0c                	je     4dcd <_ZNKSt6vectorIS_IjSaIjEESaIS1_EE12_M_check_lenEmPKc+0x63>
    4dc1:	48 8b 45 b8          	mov    -0x48(%rbp),%rax
    4dc5:	48 89 c7             	mov    %rax,%rdi
    4dc8:	e8 d3 d5 ff ff       	callq  23a0 <_ZSt20__throw_length_errorPKc@plt>
    4dcd:	48 8b 45 c8          	mov    -0x38(%rbp),%rax
    4dd1:	48 89 c7             	mov    %rax,%rdi
    4dd4:	e8 19 05 00 00       	callq  52f2 <_ZNKSt6vectorIS_IjSaIjEESaIS1_EE4sizeEv>
    4dd9:	48 89 c3             	mov    %rax,%rbx
    4ddc:	48 8b 45 c8          	mov    -0x38(%rbp),%rax
    4de0:	48 89 c7             	mov    %rax,%rdi
    4de3:	e8 0a 05 00 00       	callq  52f2 <_ZNKSt6vectorIS_IjSaIjEESaIS1_EE4sizeEv>
    4de8:	48 89 45 d8          	mov    %rax,-0x28(%rbp)
    4dec:	48 8d 55 c0          	lea    -0x40(%rbp),%rdx
    4df0:	48 8d 45 d8          	lea    -0x28(%rbp),%rax
    4df4:	48 89 d6             	mov    %rdx,%rsi
    4df7:	48 89 c7             	mov    %rax,%rdi
    4dfa:	e8 2b 05 00 00       	callq  532a <_ZSt3maxImERKT_S2_S2_>
    4dff:	48 8b 00             	mov    (%rax),%rax
    4e02:	48 01 d8             	add    %rbx,%rax
    4e05:	48 89 45 e0          	mov    %rax,-0x20(%rbp)
    4e09:	48 8b 45 c8          	mov    -0x38(%rbp),%rax
    4e0d:	48 89 c7             	mov    %rax,%rdi
    4e10:	e8 dd 04 00 00       	callq  52f2 <_ZNKSt6vectorIS_IjSaIjEESaIS1_EE4sizeEv>
    4e15:	48 39 45 e0          	cmp    %rax,-0x20(%rbp)
    4e19:	72 12                	jb     4e2d <_ZNKSt6vectorIS_IjSaIjEESaIS1_EE12_M_check_lenEmPKc+0xc3>
    4e1b:	48 8b 45 c8          	mov    -0x38(%rbp),%rax
    4e1f:	48 89 c7             	mov    %rax,%rdi
    4e22:	e8 a5 04 00 00       	callq  52cc <_ZNKSt6vectorIS_IjSaIjEESaIS1_EE8max_sizeEv>
    4e27:	48 39 45 e0          	cmp    %rax,-0x20(%rbp)
    4e2b:	76 0e                	jbe    4e3b <_ZNKSt6vectorIS_IjSaIjEESaIS1_EE12_M_check_lenEmPKc+0xd1>
    4e2d:	48 8b 45 c8          	mov    -0x38(%rbp),%rax
    4e31:	48 89 c7             	mov    %rax,%rdi
    4e34:	e8 93 04 00 00       	callq  52cc <_ZNKSt6vectorIS_IjSaIjEESaIS1_EE8max_sizeEv>
    4e39:	eb 04                	jmp    4e3f <_ZNKSt6vectorIS_IjSaIjEESaIS1_EE12_M_check_lenEmPKc+0xd5>
    4e3b:	48 8b 45 e0          	mov    -0x20(%rbp),%rax
    4e3f:	48 8b 55 e8          	mov    -0x18(%rbp),%rdx
    4e43:	64 48 2b 14 25 28 00 	sub    %fs:0x28,%rdx
    4e4a:	00 00 
    4e4c:	74 05                	je     4e53 <_ZNKSt6vectorIS_IjSaIjEESaIS1_EE12_M_check_lenEmPKc+0xe9>
    4e4e:	e8 6d d6 ff ff       	callq  24c0 <__stack_chk_fail@plt>
    4e53:	48 8b 5d f8          	mov    -0x8(%rbp),%rbx
    4e57:	c9                   	leaveq 
    4e58:	c3                   	retq   

0000000000004e59 <_ZN9__gnu_cxxmiIPSt6vectorIjSaIjEES1_IS3_SaIS3_EEEENS_17__normal_iteratorIT_T0_E15difference_typeERKSA_SD_>:
    4e59:	f3 0f 1e fa          	endbr64 
    4e5d:	55                   	push   %rbp
    4e5e:	48 89 e5             	mov    %rsp,%rbp
    4e61:	53                   	push   %rbx
    4e62:	48 83 ec 18          	sub    $0x18,%rsp
    4e66:	48 89 7d e8          	mov    %rdi,-0x18(%rbp)
    4e6a:	48 89 75 e0          	mov    %rsi,-0x20(%rbp)
    4e6e:	48 8b 45 e8          	mov    -0x18(%rbp),%rax
    4e72:	48 89 c7             	mov    %rax,%rdi
    4e75:	e8 9c ee ff ff       	callq  3d16 <_ZNK9__gnu_cxx17__normal_iteratorIPSt6vectorIjSaIjEES1_IS3_SaIS3_EEE4baseEv>
    4e7a:	48 8b 18             	mov    (%rax),%rbx
    4e7d:	48 8b 45 e0          	mov    -0x20(%rbp),%rax
    4e81:	48 89 c7             	mov    %rax,%rdi
    4e84:	e8 8d ee ff ff       	callq  3d16 <_ZNK9__gnu_cxx17__normal_iteratorIPSt6vectorIjSaIjEES1_IS3_SaIS3_EEE4baseEv>
    4e89:	48 8b 10             	mov    (%rax),%rdx
    4e8c:	48 89 d8             	mov    %rbx,%rax
    4e8f:	48 29 d0             	sub    %rdx,%rax
    4e92:	48 c1 f8 03          	sar    $0x3,%rax
    4e96:	48 89 c2             	mov    %rax,%rdx
    4e99:	48 b8 ab aa aa aa aa 	movabs $0xaaaaaaaaaaaaaaab,%rax
    4ea0:	aa aa aa 
    4ea3:	48 0f af c2          	imul   %rdx,%rax
    4ea7:	48 8b 5d f8          	mov    -0x8(%rbp),%rbx
    4eab:	c9                   	leaveq 
    4eac:	c3                   	retq   
    4ead:	90                   	nop

0000000000004eae <_ZNSt12_Vector_baseISt6vectorIjSaIjEESaIS2_EE11_M_allocateEm>:
    4eae:	f3 0f 1e fa          	endbr64 
    4eb2:	55                   	push   %rbp
    4eb3:	48 89 e5             	mov    %rsp,%rbp
    4eb6:	48 83 ec 10          	sub    $0x10,%rsp
    4eba:	48 89 7d f8          	mov    %rdi,-0x8(%rbp)
    4ebe:	48 89 75 f0          	mov    %rsi,-0x10(%rbp)
    4ec2:	48 83 7d f0 00       	cmpq   $0x0,-0x10(%rbp)
    4ec7:	74 15                	je     4ede <_ZNSt12_Vector_baseISt6vectorIjSaIjEESaIS2_EE11_M_allocateEm+0x30>
    4ec9:	48 8b 45 f8          	mov    -0x8(%rbp),%rax
    4ecd:	48 8b 55 f0          	mov    -0x10(%rbp),%rdx
    4ed1:	48 89 d6             	mov    %rdx,%rsi
    4ed4:	48 89 c7             	mov    %rax,%rdi
    4ed7:	e8 7d 04 00 00       	callq  5359 <_ZNSt16allocator_traitsISaISt6vectorIjSaIjEEEE8allocateERS3_m>
    4edc:	eb 05                	jmp    4ee3 <_ZNSt12_Vector_baseISt6vectorIjSaIjEESaIS2_EE11_M_allocateEm+0x35>
    4ede:	b8 00 00 00 00       	mov    $0x0,%eax
    4ee3:	c9                   	leaveq 
    4ee4:	c3                   	retq   

0000000000004ee5 <_ZNSt6vectorIS_IjSaIjEESaIS1_EE11_S_relocateEPS1_S4_S4_RS2_>:
    4ee5:	f3 0f 1e fa          	endbr64 
    4ee9:	55                   	push   %rbp
    4eea:	48 89 e5             	mov    %rsp,%rbp
    4eed:	48 83 ec 20          	sub    $0x20,%rsp
    4ef1:	48 89 7d f8          	mov    %rdi,-0x8(%rbp)
    4ef5:	48 89 75 f0          	mov    %rsi,-0x10(%rbp)
    4ef9:	48 89 55 e8          	mov    %rdx,-0x18(%rbp)
    4efd:	48 89 4d e0          	mov    %rcx,-0x20(%rbp)
    4f01:	48 8b 4d e0          	mov    -0x20(%rbp),%rcx
    4f05:	48 8b 55 e8          	mov    -0x18(%rbp),%rdx
    4f09:	48 8b 75 f0          	mov    -0x10(%rbp),%rsi
    4f0d:	48 8b 45 f8          	mov    -0x8(%rbp),%rax
    4f11:	48 89 c7             	mov    %rax,%rdi
    4f14:	e8 6e 04 00 00       	callq  5387 <_ZNSt6vectorIS_IjSaIjEESaIS1_EE14_S_do_relocateEPS1_S4_S4_RS2_St17integral_constantIbLb1EE>
    4f19:	c9                   	leaveq 
    4f1a:	c3                   	retq   
    4f1b:	90                   	nop

0000000000004f1c <_ZNSt12_Vector_baseISt6vectorIjSaIjEESaIS2_EE19_M_get_Tp_allocatorEv>:
    4f1c:	f3 0f 1e fa          	endbr64 
    4f20:	55                   	push   %rbp
    4f21:	48 89 e5             	mov    %rsp,%rbp
    4f24:	48 89 7d f8          	mov    %rdi,-0x8(%rbp)
    4f28:	48 8b 45 f8          	mov    -0x8(%rbp),%rax
    4f2c:	5d                   	pop    %rbp
    4f2d:	c3                   	retq   

0000000000004f2e <_ZNSt16allocator_traitsISaISt6vectorIjSaIjEEEE7destroyIS2_EEvRS3_PT_>:
    4f2e:	f3 0f 1e fa          	endbr64 
    4f32:	55                   	push   %rbp
    4f33:	48 89 e5             	mov    %rsp,%rbp
    4f36:	48 83 ec 10          	sub    $0x10,%rsp
    4f3a:	48 89 7d f8          	mov    %rdi,-0x8(%rbp)
    4f3e:	48 89 75 f0          	mov    %rsi,-0x10(%rbp)
    4f42:	48 8b 55 f0          	mov    -0x10(%rbp),%rdx
    4f46:	48 8b 45 f8          	mov    -0x8(%rbp),%rax
    4f4a:	48 89 d6             	mov    %rdx,%rsi
    4f4d:	48 89 c7             	mov    %rax,%rdi
    4f50:	e8 69 04 00 00       	callq  53be <_ZN9__gnu_cxx13new_allocatorISt6vectorIjSaIjEEE7destroyIS3_EEvPT_>
    4f55:	90                   	nop
    4f56:	c9                   	leaveq 
    4f57:	c3                   	retq   

0000000000004f58 <_ZSt8_DestroyIPSt6vectorIjSaIjEES2_EvT_S4_RSaIT0_E>:
    4f58:	f3 0f 1e fa          	endbr64 
    4f5c:	55                   	push   %rbp
    4f5d:	48 89 e5             	mov    %rsp,%rbp
    4f60:	48 83 ec 20          	sub    $0x20,%rsp
    4f64:	48 89 7d f8          	mov    %rdi,-0x8(%rbp)
    4f68:	48 89 75 f0          	mov    %rsi,-0x10(%rbp)
    4f6c:	48 89 55 e8          	mov    %rdx,-0x18(%rbp)
    4f70:	48 8b 55 f0          	mov    -0x10(%rbp),%rdx
    4f74:	48 8b 45 f8          	mov    -0x8(%rbp),%rax
    4f78:	48 89 d6             	mov    %rdx,%rsi
    4f7b:	48 89 c7             	mov    %rax,%rdi
    4f7e:	e8 5e 04 00 00       	callq  53e1 <_ZSt8_DestroyIPSt6vectorIjSaIjEEEvT_S4_>
    4f83:	90                   	nop
    4f84:	c9                   	leaveq 
    4f85:	c3                   	retq   

0000000000004f86 <_ZNSaIjEC1ERKS_>:
    4f86:	f3 0f 1e fa          	endbr64 
    4f8a:	55                   	push   %rbp
    4f8b:	48 89 e5             	mov    %rsp,%rbp
    4f8e:	48 83 ec 10          	sub    $0x10,%rsp
    4f92:	48 89 7d f8          	mov    %rdi,-0x8(%rbp)
    4f96:	48 89 75 f0          	mov    %rsi,-0x10(%rbp)
    4f9a:	48 8b 55 f0          	mov    -0x10(%rbp),%rdx
    4f9e:	48 8b 45 f8          	mov    -0x8(%rbp),%rax
    4fa2:	48 89 d6             	mov    %rdx,%rsi
    4fa5:	48 89 c7             	mov    %rax,%rdi
    4fa8:	e8 5f 04 00 00       	callq  540c <_ZN9__gnu_cxx13new_allocatorIjEC1ERKS1_>
    4fad:	90                   	nop
    4fae:	c9                   	leaveq 
    4faf:	c3                   	retq   

0000000000004fb0 <_ZNSt12_Vector_baseIjSaIjEE11_M_allocateEm>:
    4fb0:	f3 0f 1e fa          	endbr64 
    4fb4:	55                   	push   %rbp
    4fb5:	48 89 e5             	mov    %rsp,%rbp
    4fb8:	48 83 ec 10          	sub    $0x10,%rsp
    4fbc:	48 89 7d f8          	mov    %rdi,-0x8(%rbp)
    4fc0:	48 89 75 f0          	mov    %rsi,-0x10(%rbp)
    4fc4:	48 83 7d f0 00       	cmpq   $0x0,-0x10(%rbp)
    4fc9:	74 15                	je     4fe0 <_ZNSt12_Vector_baseIjSaIjEE11_M_allocateEm+0x30>
    4fcb:	48 8b 45 f8          	mov    -0x8(%rbp),%rax
    4fcf:	48 8b 55 f0          	mov    -0x10(%rbp),%rdx
    4fd3:	48 89 d6             	mov    %rdx,%rsi
    4fd6:	48 89 c7             	mov    %rax,%rdi
    4fd9:	e8 41 04 00 00       	callq  541f <_ZNSt16allocator_traitsISaIjEE8allocateERS0_m>
    4fde:	eb 05                	jmp    4fe5 <_ZNSt12_Vector_baseIjSaIjEE11_M_allocateEm+0x35>
    4fe0:	b8 00 00 00 00       	mov    $0x0,%eax
    4fe5:	c9                   	leaveq 
    4fe6:	c3                   	retq   

0000000000004fe7 <_ZNSt20__uninitialized_copyILb1EE13__uninit_copyIN9__gnu_cxx17__normal_iteratorIPKjSt6vectorIjSaIjEEEEPjEET0_T_SC_SB_>:
    4fe7:	f3 0f 1e fa          	endbr64 
    4feb:	55                   	push   %rbp
    4fec:	48 89 e5             	mov    %rsp,%rbp
    4fef:	48 83 ec 20          	sub    $0x20,%rsp
    4ff3:	48 89 7d f8          	mov    %rdi,-0x8(%rbp)
    4ff7:	48 89 75 f0          	mov    %rsi,-0x10(%rbp)
    4ffb:	48 89 55 e8          	mov    %rdx,-0x18(%rbp)
    4fff:	48 8b 55 e8          	mov    -0x18(%rbp),%rdx
    5003:	48 8b 4d f0          	mov    -0x10(%rbp),%rcx
    5007:	48 8b 45 f8          	mov    -0x8(%rbp),%rax
    500b:	48 89 ce             	mov    %rcx,%rsi
    500e:	48 89 c7             	mov    %rax,%rdi
    5011:	e8 37 04 00 00       	callq  544d <_ZSt4copyIN9__gnu_cxx17__normal_iteratorIPKjSt6vectorIjSaIjEEEEPjET0_T_SA_S9_>
    5016:	c9                   	leaveq 
    5017:	c3                   	retq   

0000000000005018 <_ZNSt8__detail5__modImLm2147483647ELm16807ELm0EEET_S1_>:
    5018:	f3 0f 1e fa          	endbr64 
    501c:	55                   	push   %rbp
    501d:	48 89 e5             	mov    %rsp,%rbp
    5020:	48 83 ec 20          	sub    $0x20,%rsp
    5024:	48 89 7d e8          	mov    %rdi,-0x18(%rbp)
    5028:	48 c7 45 f8 a7 41 00 	movq   $0x41a7,-0x8(%rbp)
    502f:	00 
    5030:	48 8b 45 e8          	mov    -0x18(%rbp),%rax
    5034:	48 89 c7             	mov    %rax,%rdi
    5037:	e8 60 04 00 00       	callq  549c <_ZNSt8__detail4_ModImLm2147483647ELm16807ELm0ELb1ELb1EE6__calcEm>
    503c:	c9                   	leaveq 
    503d:	c3                   	retq   

000000000000503e <_ZN9__gnu_cxx17__is_null_pointerIKcEEbPT_>:
    503e:	f3 0f 1e fa          	endbr64 
    5042:	55                   	push   %rbp
    5043:	48 89 e5             	mov    %rsp,%rbp
    5046:	48 89 7d f8          	mov    %rdi,-0x8(%rbp)
    504a:	48 83 7d f8 00       	cmpq   $0x0,-0x8(%rbp)
    504f:	0f 94 c0             	sete   %al
    5052:	5d                   	pop    %rbp
    5053:	c3                   	retq   

0000000000005054 <_ZSt19__iterator_categoryIPKcENSt15iterator_traitsIT_E17iterator_categoryERKS3_>:
    5054:	f3 0f 1e fa          	endbr64 
    5058:	55                   	push   %rbp
    5059:	48 89 e5             	mov    %rsp,%rbp
    505c:	48 89 7d f8          	mov    %rdi,-0x8(%rbp)
    5060:	5d                   	pop    %rbp
    5061:	c3                   	retq   

0000000000005062 <_ZSt10__distanceIPKcENSt15iterator_traitsIT_E15difference_typeES3_S3_St26random_access_iterator_tag>:
    5062:	f3 0f 1e fa          	endbr64 
    5066:	55                   	push   %rbp
    5067:	48 89 e5             	mov    %rsp,%rbp
    506a:	48 89 7d f8          	mov    %rdi,-0x8(%rbp)
    506e:	48 89 75 f0          	mov    %rsi,-0x10(%rbp)
    5072:	48 8b 45 f0          	mov    -0x10(%rbp),%rax
    5076:	48 2b 45 f8          	sub    -0x8(%rbp),%rax
    507a:	5d                   	pop    %rbp
    507b:	c3                   	retq   

000000000000507c <_ZNSt8__detail4_ModImLm2147483647ELm1ELm0ELb1ELb1EE6__calcEm>:
    507c:	f3 0f 1e fa          	endbr64 
    5080:	55                   	push   %rbp
    5081:	48 89 e5             	mov    %rsp,%rbp
    5084:	48 89 7d e8          	mov    %rdi,-0x18(%rbp)
    5088:	48 8b 45 e8          	mov    -0x18(%rbp),%rax
    508c:	48 89 45 f8          	mov    %rax,-0x8(%rbp)
    5090:	48 8b 4d f8          	mov    -0x8(%rbp),%rcx
    5094:	48 ba 05 00 00 00 02 	movabs $0x200000005,%rdx
    509b:	00 00 00 
    509e:	48 89 c8             	mov    %rcx,%rax
    50a1:	48 f7 e2             	mul    %rdx
    50a4:	48 89 c8             	mov    %rcx,%rax
    50a7:	48 29 d0             	sub    %rdx,%rax
    50aa:	48 d1 e8             	shr    %rax
    50ad:	48 01 d0             	add    %rdx,%rax
    50b0:	48 c1 e8 1e          	shr    $0x1e,%rax
    50b4:	48 89 c2             	mov    %rax,%rdx
    50b7:	48 89 d0             	mov    %rdx,%rax
    50ba:	48 c1 e0 1f          	shl    $0x1f,%rax
    50be:	48 29 d0             	sub    %rdx,%rax
    50c1:	48 29 c1             	sub    %rax,%rcx
    50c4:	48 89 ca             	mov    %rcx,%rdx
    50c7:	48 89 55 f8          	mov    %rdx,-0x8(%rbp)
    50cb:	48 8b 45 f8          	mov    -0x8(%rbp),%rax
    50cf:	5d                   	pop    %rbp
    50d0:	c3                   	retq   
    50d1:	90                   	nop

00000000000050d2 <_ZN9__gnu_cxx13new_allocatorISt6vectorIjSaIjEEE10deallocateEPS3_m>:
    50d2:	f3 0f 1e fa          	endbr64 
    50d6:	55                   	push   %rbp
    50d7:	48 89 e5             	mov    %rsp,%rbp
    50da:	48 83 ec 20          	sub    $0x20,%rsp
    50de:	48 89 7d f8          	mov    %rdi,-0x8(%rbp)
    50e2:	48 89 75 f0          	mov    %rsi,-0x10(%rbp)
    50e6:	48 89 55 e8          	mov    %rdx,-0x18(%rbp)
    50ea:	48 8b 55 e8          	mov    -0x18(%rbp),%rdx
    50ee:	48 89 d0             	mov    %rdx,%rax
    50f1:	48 01 c0             	add    %rax,%rax
    50f4:	48 01 d0             	add    %rdx,%rax
    50f7:	48 c1 e0 03          	shl    $0x3,%rax
    50fb:	48 89 c2             	mov    %rax,%rdx
    50fe:	48 8b 45 f0          	mov    -0x10(%rbp),%rax
    5102:	48 89 d6             	mov    %rdx,%rsi
    5105:	48 89 c7             	mov    %rax,%rdi
    5108:	e8 53 d3 ff ff       	callq  2460 <_ZdlPvm@plt>
    510d:	c9                   	leaveq 
    510e:	c3                   	retq   

000000000000510f <_ZSt7forwardIRKjEOT_RNSt16remove_referenceIS2_E4typeE>:
    510f:	f3 0f 1e fa          	endbr64 
    5113:	55                   	push   %rbp
    5114:	48 89 e5             	mov    %rsp,%rbp
    5117:	48 89 7d f8          	mov    %rdi,-0x8(%rbp)
    511b:	48 8b 45 f8          	mov    -0x8(%rbp),%rax
    511f:	5d                   	pop    %rbp
    5120:	c3                   	retq   
    5121:	90                   	nop

0000000000005122 <_ZN9__gnu_cxx13new_allocatorIjE9constructIjJRKjEEEvPT_DpOT0_>:
    5122:	f3 0f 1e fa          	endbr64 
    5126:	55                   	push   %rbp
    5127:	48 89 e5             	mov    %rsp,%rbp
    512a:	53                   	push   %rbx
    512b:	48 83 ec 28          	sub    $0x28,%rsp
    512f:	48 89 7d e8          	mov    %rdi,-0x18(%rbp)
    5133:	48 89 75 e0          	mov    %rsi,-0x20(%rbp)
    5137:	48 89 55 d8          	mov    %rdx,-0x28(%rbp)
    513b:	48 8b 45 d8          	mov    -0x28(%rbp),%rax
    513f:	48 89 c7             	mov    %rax,%rdi
    5142:	e8 c8 ff ff ff       	callq  510f <_ZSt7forwardIRKjEOT_RNSt16remove_referenceIS2_E4typeE>
    5147:	8b 18                	mov    (%rax),%ebx
    5149:	48 8b 45 e0          	mov    -0x20(%rbp),%rax
    514d:	48 89 c6             	mov    %rax,%rsi
    5150:	bf 04 00 00 00       	mov    $0x4,%edi
    5155:	e8 4c dc ff ff       	callq  2da6 <_ZnwmPv>
    515a:	89 18                	mov    %ebx,(%rax)
    515c:	90                   	nop
    515d:	48 8b 5d f8          	mov    -0x8(%rbp),%rbx
    5161:	c9                   	leaveq 
    5162:	c3                   	retq   
    5163:	90                   	nop

0000000000005164 <_ZNKSt6vectorIjSaIjEE12_M_check_lenEmPKc>:
    5164:	f3 0f 1e fa          	endbr64 
    5168:	55                   	push   %rbp
    5169:	48 89 e5             	mov    %rsp,%rbp
    516c:	53                   	push   %rbx
    516d:	48 83 ec 48          	sub    $0x48,%rsp
    5171:	48 89 7d c8          	mov    %rdi,-0x38(%rbp)
    5175:	48 89 75 c0          	mov    %rsi,-0x40(%rbp)
    5179:	48 89 55 b8          	mov    %rdx,-0x48(%rbp)
    517d:	64 48 8b 04 25 28 00 	mov    %fs:0x28,%rax
    5184:	00 00 
    5186:	48 89 45 e8          	mov    %rax,-0x18(%rbp)
    518a:	31 c0                	xor    %eax,%eax
    518c:	48 8b 45 c8          	mov    -0x38(%rbp),%rax
    5190:	48 89 c7             	mov    %rax,%rdi
    5193:	e8 60 03 00 00       	callq  54f8 <_ZNKSt6vectorIjSaIjEE8max_sizeEv>
    5198:	48 89 c3             	mov    %rax,%rbx
    519b:	48 8b 45 c8          	mov    -0x38(%rbp),%rax
    519f:	48 89 c7             	mov    %rax,%rdi
    51a2:	e8 91 e0 ff ff       	callq  3238 <_ZNKSt6vectorIjSaIjEE4sizeEv>
    51a7:	48 29 c3             	sub    %rax,%rbx
    51aa:	48 89 da             	mov    %rbx,%rdx
    51ad:	48 8b 45 c0          	mov    -0x40(%rbp),%rax
    51b1:	48 39 c2             	cmp    %rax,%rdx
    51b4:	0f 92 c0             	setb   %al
    51b7:	84 c0                	test   %al,%al
    51b9:	74 0c                	je     51c7 <_ZNKSt6vectorIjSaIjEE12_M_check_lenEmPKc+0x63>
    51bb:	48 8b 45 b8          	mov    -0x48(%rbp),%rax
    51bf:	48 89 c7             	mov    %rax,%rdi
    51c2:	e8 d9 d1 ff ff       	callq  23a0 <_ZSt20__throw_length_errorPKc@plt>
    51c7:	48 8b 45 c8          	mov    -0x38(%rbp),%rax
    51cb:	48 89 c7             	mov    %rax,%rdi
    51ce:	e8 65 e0 ff ff       	callq  3238 <_ZNKSt6vectorIjSaIjEE4sizeEv>
    51d3:	48 89 c3             	mov    %rax,%rbx
    51d6:	48 8b 45 c8          	mov    -0x38(%rbp),%rax
    51da:	48 89 c7             	mov    %rax,%rdi
    51dd:	e8 56 e0 ff ff       	callq  3238 <_ZNKSt6vectorIjSaIjEE4sizeEv>
    51e2:	48 89 45 d8          	mov    %rax,-0x28(%rbp)
    51e6:	48 8d 55 c0          	lea    -0x40(%rbp),%rdx
    51ea:	48 8d 45 d8          	lea    -0x28(%rbp),%rax
    51ee:	48 89 d6             	mov    %rdx,%rsi
    51f1:	48 89 c7             	mov    %rax,%rdi
    51f4:	e8 31 01 00 00       	callq  532a <_ZSt3maxImERKT_S2_S2_>
    51f9:	48 8b 00             	mov    (%rax),%rax
    51fc:	48 01 d8             	add    %rbx,%rax
    51ff:	48 89 45 e0          	mov    %rax,-0x20(%rbp)
    5203:	48 8b 45 c8          	mov    -0x38(%rbp),%rax
    5207:	48 89 c7             	mov    %rax,%rdi
    520a:	e8 29 e0 ff ff       	callq  3238 <_ZNKSt6vectorIjSaIjEE4sizeEv>
    520f:	48 39 45 e0          	cmp    %rax,-0x20(%rbp)
    5213:	72 12                	jb     5227 <_ZNKSt6vectorIjSaIjEE12_M_check_lenEmPKc+0xc3>
    5215:	48 8b 45 c8          	mov    -0x38(%rbp),%rax
    5219:	48 89 c7             	mov    %rax,%rdi
    521c:	e8 d7 02 00 00       	callq  54f8 <_ZNKSt6vectorIjSaIjEE8max_sizeEv>
    5221:	48 39 45 e0          	cmp    %rax,-0x20(%rbp)
    5225:	76 0e                	jbe    5235 <_ZNKSt6vectorIjSaIjEE12_M_check_lenEmPKc+0xd1>
    5227:	48 8b 45 c8          	mov    -0x38(%rbp),%rax
    522b:	48 89 c7             	mov    %rax,%rdi
    522e:	e8 c5 02 00 00       	callq  54f8 <_ZNKSt6vectorIjSaIjEE8max_sizeEv>
    5233:	eb 04                	jmp    5239 <_ZNKSt6vectorIjSaIjEE12_M_check_lenEmPKc+0xd5>
    5235:	48 8b 45 e0          	mov    -0x20(%rbp),%rax
    5239:	48 8b 55 e8          	mov    -0x18(%rbp),%rdx
    523d:	64 48 2b 14 25 28 00 	sub    %fs:0x28,%rdx
    5244:	00 00 
    5246:	74 05                	je     524d <_ZNKSt6vectorIjSaIjEE12_M_check_lenEmPKc+0xe9>
    5248:	e8 73 d2 ff ff       	callq  24c0 <__stack_chk_fail@plt>
    524d:	48 8b 5d f8          	mov    -0x8(%rbp),%rbx
    5251:	c9                   	leaveq 
    5252:	c3                   	retq   

0000000000005253 <_ZN9__gnu_cxxmiIPjSt6vectorIjSaIjEEEENS_17__normal_iteratorIT_T0_E15difference_typeERKS8_SB_>:
    5253:	f3 0f 1e fa          	endbr64 
    5257:	55                   	push   %rbp
    5258:	48 89 e5             	mov    %rsp,%rbp
    525b:	53                   	push   %rbx
    525c:	48 83 ec 18          	sub    $0x18,%rsp
    5260:	48 89 7d e8          	mov    %rdi,-0x18(%rbp)
    5264:	48 89 75 e0          	mov    %rsi,-0x20(%rbp)
    5268:	48 8b 45 e8          	mov    -0x18(%rbp),%rax
    526c:	48 89 c7             	mov    %rax,%rdi
    526f:	e8 70 ec ff ff       	callq  3ee4 <_ZNK9__gnu_cxx17__normal_iteratorIPjSt6vectorIjSaIjEEE4baseEv>
    5274:	48 8b 18             	mov    (%rax),%rbx
    5277:	48 8b 45 e0          	mov    -0x20(%rbp),%rax
    527b:	48 89 c7             	mov    %rax,%rdi
    527e:	e8 61 ec ff ff       	callq  3ee4 <_ZNK9__gnu_cxx17__normal_iteratorIPjSt6vectorIjSaIjEEE4baseEv>
    5283:	48 8b 10             	mov    (%rax),%rdx
    5286:	48 89 d8             	mov    %rbx,%rax
    5289:	48 29 d0             	sub    %rdx,%rax
    528c:	48 c1 f8 02          	sar    $0x2,%rax
    5290:	48 8b 5d f8          	mov    -0x8(%rbp),%rbx
    5294:	c9                   	leaveq 
    5295:	c3                   	retq   

0000000000005296 <_ZNSt6vectorIjSaIjEE11_S_relocateEPjS2_S2_RS0_>:
    5296:	f3 0f 1e fa          	endbr64 
    529a:	55                   	push   %rbp
    529b:	48 89 e5             	mov    %rsp,%rbp
    529e:	48 83 ec 20          	sub    $0x20,%rsp
    52a2:	48 89 7d f8          	mov    %rdi,-0x8(%rbp)
    52a6:	48 89 75 f0          	mov    %rsi,-0x10(%rbp)
    52aa:	48 89 55 e8          	mov    %rdx,-0x18(%rbp)
    52ae:	48 89 4d e0          	mov    %rcx,-0x20(%rbp)
    52b2:	48 8b 4d e0          	mov    -0x20(%rbp),%rcx
    52b6:	48 8b 55 e8          	mov    -0x18(%rbp),%rdx
    52ba:	48 8b 75 f0          	mov    -0x10(%rbp),%rsi
    52be:	48 8b 45 f8          	mov    -0x8(%rbp),%rax
    52c2:	48 89 c7             	mov    %rax,%rdi
    52c5:	e8 54 02 00 00       	callq  551e <_ZNSt6vectorIjSaIjEE14_S_do_relocateEPjS2_S2_RS0_St17integral_constantIbLb1EE>
    52ca:	c9                   	leaveq 
    52cb:	c3                   	retq   

00000000000052cc <_ZNKSt6vectorIS_IjSaIjEESaIS1_EE8max_sizeEv>:
    52cc:	f3 0f 1e fa          	endbr64 
    52d0:	55                   	push   %rbp
    52d1:	48 89 e5             	mov    %rsp,%rbp
    52d4:	48 83 ec 10          	sub    $0x10,%rsp
    52d8:	48 89 7d f8          	mov    %rdi,-0x8(%rbp)
    52dc:	48 8b 45 f8          	mov    -0x8(%rbp),%rax
    52e0:	48 89 c7             	mov    %rax,%rdi
    52e3:	e8 d6 02 00 00       	callq  55be <_ZNKSt12_Vector_baseISt6vectorIjSaIjEESaIS2_EE19_M_get_Tp_allocatorEv>
    52e8:	48 89 c7             	mov    %rax,%rdi
    52eb:	e8 64 02 00 00       	callq  5554 <_ZNSt6vectorIS_IjSaIjEESaIS1_EE11_S_max_sizeERKS2_>
    52f0:	c9                   	leaveq 
    52f1:	c3                   	retq   

00000000000052f2 <_ZNKSt6vectorIS_IjSaIjEESaIS1_EE4sizeEv>:
    52f2:	f3 0f 1e fa          	endbr64 
    52f6:	55                   	push   %rbp
    52f7:	48 89 e5             	mov    %rsp,%rbp
    52fa:	48 89 7d f8          	mov    %rdi,-0x8(%rbp)
    52fe:	48 8b 45 f8          	mov    -0x8(%rbp),%rax
    5302:	48 8b 50 08          	mov    0x8(%rax),%rdx
    5306:	48 8b 45 f8          	mov    -0x8(%rbp),%rax
    530a:	48 8b 08             	mov    (%rax),%rcx
    530d:	48 89 d0             	mov    %rdx,%rax
    5310:	48 29 c8             	sub    %rcx,%rax
    5313:	48 c1 f8 03          	sar    $0x3,%rax
    5317:	48 89 c2             	mov    %rax,%rdx
    531a:	48 b8 ab aa aa aa aa 	movabs $0xaaaaaaaaaaaaaaab,%rax
    5321:	aa aa aa 
    5324:	48 0f af c2          	imul   %rdx,%rax
    5328:	5d                   	pop    %rbp
    5329:	c3                   	retq   

000000000000532a <_ZSt3maxImERKT_S2_S2_>:
    532a:	f3 0f 1e fa          	endbr64 
    532e:	55                   	push   %rbp
    532f:	48 89 e5             	mov    %rsp,%rbp
    5332:	48 89 7d f8          	mov    %rdi,-0x8(%rbp)
    5336:	48 89 75 f0          	mov    %rsi,-0x10(%rbp)
    533a:	48 8b 45 f8          	mov    -0x8(%rbp),%rax
    533e:	48 8b 10             	mov    (%rax),%rdx
    5341:	48 8b 45 f0          	mov    -0x10(%rbp),%rax
    5345:	48 8b 00             	mov    (%rax),%rax
    5348:	48 39 c2             	cmp    %rax,%rdx
    534b:	73 06                	jae    5353 <_ZSt3maxImERKT_S2_S2_+0x29>
    534d:	48 8b 45 f0          	mov    -0x10(%rbp),%rax
    5351:	eb 04                	jmp    5357 <_ZSt3maxImERKT_S2_S2_+0x2d>
    5353:	48 8b 45 f8          	mov    -0x8(%rbp),%rax
    5357:	5d                   	pop    %rbp
    5358:	c3                   	retq   

0000000000005359 <_ZNSt16allocator_traitsISaISt6vectorIjSaIjEEEE8allocateERS3_m>:
    5359:	f3 0f 1e fa          	endbr64 
    535d:	55                   	push   %rbp
    535e:	48 89 e5             	mov    %rsp,%rbp
    5361:	48 83 ec 10          	sub    $0x10,%rsp
    5365:	48 89 7d f8          	mov    %rdi,-0x8(%rbp)
    5369:	48 89 75 f0          	mov    %rsi,-0x10(%rbp)
    536d:	48 8b 4d f0          	mov    -0x10(%rbp),%rcx
    5371:	48 8b 45 f8          	mov    -0x8(%rbp),%rax
    5375:	ba 00 00 00 00       	mov    $0x0,%edx
    537a:	48 89 ce             	mov    %rcx,%rsi
    537d:	48 89 c7             	mov    %rax,%rdi
    5380:	e8 63 02 00 00       	callq  55e8 <_ZN9__gnu_cxx13new_allocatorISt6vectorIjSaIjEEE8allocateEmPKv>
    5385:	c9                   	leaveq 
    5386:	c3                   	retq   

0000000000005387 <_ZNSt6vectorIS_IjSaIjEESaIS1_EE14_S_do_relocateEPS1_S4_S4_RS2_St17integral_constantIbLb1EE>:
    5387:	f3 0f 1e fa          	endbr64 
    538b:	55                   	push   %rbp
    538c:	48 89 e5             	mov    %rsp,%rbp
    538f:	48 83 ec 20          	sub    $0x20,%rsp
    5393:	48 89 7d f8          	mov    %rdi,-0x8(%rbp)
    5397:	48 89 75 f0          	mov    %rsi,-0x10(%rbp)
    539b:	48 89 55 e8          	mov    %rdx,-0x18(%rbp)
    539f:	48 89 4d e0          	mov    %rcx,-0x20(%rbp)
    53a3:	48 8b 4d e0          	mov    -0x20(%rbp),%rcx
    53a7:	48 8b 55 e8          	mov    -0x18(%rbp),%rdx
    53ab:	48 8b 75 f0          	mov    -0x10(%rbp),%rsi
    53af:	48 8b 45 f8          	mov    -0x8(%rbp),%rax
    53b3:	48 89 c7             	mov    %rax,%rdi
    53b6:	e8 9b 02 00 00       	callq  5656 <_ZSt12__relocate_aIPSt6vectorIjSaIjEES3_SaIS2_EET0_T_S6_S5_RT1_>
    53bb:	c9                   	leaveq 
    53bc:	c3                   	retq   
    53bd:	90                   	nop

00000000000053be <_ZN9__gnu_cxx13new_allocatorISt6vectorIjSaIjEEE7destroyIS3_EEvPT_>:
    53be:	f3 0f 1e fa          	endbr64 
    53c2:	55                   	push   %rbp
    53c3:	48 89 e5             	mov    %rsp,%rbp
    53c6:	48 83 ec 10          	sub    $0x10,%rsp
    53ca:	48 89 7d f8          	mov    %rdi,-0x8(%rbp)
    53ce:	48 89 75 f0          	mov    %rsi,-0x10(%rbp)
    53d2:	48 8b 45 f0          	mov    -0x10(%rbp),%rax
    53d6:	48 89 c7             	mov    %rax,%rdi
    53d9:	e8 12 de ff ff       	callq  31f0 <_ZNSt6vectorIjSaIjEED1Ev>
    53de:	90                   	nop
    53df:	c9                   	leaveq 
    53e0:	c3                   	retq   

00000000000053e1 <_ZSt8_DestroyIPSt6vectorIjSaIjEEEvT_S4_>:
    53e1:	f3 0f 1e fa          	endbr64 
    53e5:	55                   	push   %rbp
    53e6:	48 89 e5             	mov    %rsp,%rbp
    53e9:	48 83 ec 10          	sub    $0x10,%rsp
    53ed:	48 89 7d f8          	mov    %rdi,-0x8(%rbp)
    53f1:	48 89 75 f0          	mov    %rsi,-0x10(%rbp)
    53f5:	48 8b 55 f0          	mov    -0x10(%rbp),%rdx
    53f9:	48 8b 45 f8          	mov    -0x8(%rbp),%rax
    53fd:	48 89 d6             	mov    %rdx,%rsi
    5400:	48 89 c7             	mov    %rax,%rdi
    5403:	e8 b5 02 00 00       	callq  56bd <_ZNSt12_Destroy_auxILb0EE9__destroyIPSt6vectorIjSaIjEEEEvT_S6_>
    5408:	90                   	nop
    5409:	c9                   	leaveq 
    540a:	c3                   	retq   
    540b:	90                   	nop

000000000000540c <_ZN9__gnu_cxx13new_allocatorIjEC1ERKS1_>:
    540c:	f3 0f 1e fa          	endbr64 
    5410:	55                   	push   %rbp
    5411:	48 89 e5             	mov    %rsp,%rbp
    5414:	48 89 7d f8          	mov    %rdi,-0x8(%rbp)
    5418:	48 89 75 f0          	mov    %rsi,-0x10(%rbp)
    541c:	90                   	nop
    541d:	5d                   	pop    %rbp
    541e:	c3                   	retq   

000000000000541f <_ZNSt16allocator_traitsISaIjEE8allocateERS0_m>:
    541f:	f3 0f 1e fa          	endbr64 
    5423:	55                   	push   %rbp
    5424:	48 89 e5             	mov    %rsp,%rbp
    5427:	48 83 ec 10          	sub    $0x10,%rsp
    542b:	48 89 7d f8          	mov    %rdi,-0x8(%rbp)
    542f:	48 89 75 f0          	mov    %rsi,-0x10(%rbp)
    5433:	48 8b 4d f0          	mov    -0x10(%rbp),%rcx
    5437:	48 8b 45 f8          	mov    -0x8(%rbp),%rax
    543b:	ba 00 00 00 00       	mov    $0x0,%edx
    5440:	48 89 ce             	mov    %rcx,%rsi
    5443:	48 89 c7             	mov    %rax,%rdi
    5446:	e8 c7 02 00 00       	callq  5712 <_ZN9__gnu_cxx13new_allocatorIjE8allocateEmPKv>
    544b:	c9                   	leaveq 
    544c:	c3                   	retq   

000000000000544d <_ZSt4copyIN9__gnu_cxx17__normal_iteratorIPKjSt6vectorIjSaIjEEEEPjET0_T_SA_S9_>:
    544d:	f3 0f 1e fa          	endbr64 
    5451:	55                   	push   %rbp
    5452:	48 89 e5             	mov    %rsp,%rbp
    5455:	53                   	push   %rbx
    5456:	48 83 ec 28          	sub    $0x28,%rsp
    545a:	48 89 7d e8          	mov    %rdi,-0x18(%rbp)
    545e:	48 89 75 e0          	mov    %rsi,-0x20(%rbp)
    5462:	48 89 55 d8          	mov    %rdx,-0x28(%rbp)
    5466:	48 8b 45 e0          	mov    -0x20(%rbp),%rax
    546a:	48 89 c7             	mov    %rax,%rdi
    546d:	e8 05 03 00 00       	callq  5777 <_ZSt12__miter_baseIN9__gnu_cxx17__normal_iteratorIPKjSt6vectorIjSaIjEEEEET_S8_>
    5472:	48 89 c3             	mov    %rax,%rbx
    5475:	48 8b 45 e8          	mov    -0x18(%rbp),%rax
    5479:	48 89 c7             	mov    %rax,%rdi
    547c:	e8 f6 02 00 00       	callq  5777 <_ZSt12__miter_baseIN9__gnu_cxx17__normal_iteratorIPKjSt6vectorIjSaIjEEEEET_S8_>
    5481:	48 89 c1             	mov    %rax,%rcx
    5484:	48 8b 45 d8          	mov    -0x28(%rbp),%rax
    5488:	48 89 c2             	mov    %rax,%rdx
    548b:	48 89 de             	mov    %rbx,%rsi
    548e:	48 89 cf             	mov    %rcx,%rdi
    5491:	e8 f3 02 00 00       	callq  5789 <_ZSt13__copy_move_aILb0EN9__gnu_cxx17__normal_iteratorIPKjSt6vectorIjSaIjEEEEPjET1_T0_SA_S9_>
    5496:	48 8b 5d f8          	mov    -0x8(%rbp),%rbx
    549a:	c9                   	leaveq 
    549b:	c3                   	retq   

000000000000549c <_ZNSt8__detail4_ModImLm2147483647ELm16807ELm0ELb1ELb1EE6__calcEm>:
    549c:	f3 0f 1e fa          	endbr64 
    54a0:	55                   	push   %rbp
    54a1:	48 89 e5             	mov    %rsp,%rbp
    54a4:	48 89 7d e8          	mov    %rdi,-0x18(%rbp)
    54a8:	48 8b 45 e8          	mov    -0x18(%rbp),%rax
    54ac:	48 69 c0 a7 41 00 00 	imul   $0x41a7,%rax,%rax
    54b3:	48 89 45 f8          	mov    %rax,-0x8(%rbp)
    54b7:	48 8b 4d f8          	mov    -0x8(%rbp),%rcx
    54bb:	48 ba 05 00 00 00 02 	movabs $0x200000005,%rdx
    54c2:	00 00 00 
    54c5:	48 89 c8             	mov    %rcx,%rax
    54c8:	48 f7 e2             	mul    %rdx
    54cb:	48 89 c8             	mov    %rcx,%rax
    54ce:	48 29 d0             	sub    %rdx,%rax
    54d1:	48 d1 e8             	shr    %rax
    54d4:	48 01 d0             	add    %rdx,%rax
    54d7:	48 c1 e8 1e          	shr    $0x1e,%rax
    54db:	48 89 c2             	mov    %rax,%rdx
    54de:	48 89 d0             	mov    %rdx,%rax
    54e1:	48 c1 e0 1f          	shl    $0x1f,%rax
    54e5:	48 29 d0             	sub    %rdx,%rax
    54e8:	48 29 c1             	sub    %rax,%rcx
    54eb:	48 89 ca             	mov    %rcx,%rdx
    54ee:	48 89 55 f8          	mov    %rdx,-0x8(%rbp)
    54f2:	48 8b 45 f8          	mov    -0x8(%rbp),%rax
    54f6:	5d                   	pop    %rbp
    54f7:	c3                   	retq   

00000000000054f8 <_ZNKSt6vectorIjSaIjEE8max_sizeEv>:
    54f8:	f3 0f 1e fa          	endbr64 
    54fc:	55                   	push   %rbp
    54fd:	48 89 e5             	mov    %rsp,%rbp
    5500:	48 83 ec 10          	sub    $0x10,%rsp
    5504:	48 89 7d f8          	mov    %rdi,-0x8(%rbp)
    5508:	48 8b 45 f8          	mov    -0x8(%rbp),%rax
    550c:	48 89 c7             	mov    %rax,%rdi
    550f:	e8 64 e8 ff ff       	callq  3d78 <_ZNKSt12_Vector_baseIjSaIjEE19_M_get_Tp_allocatorEv>
    5514:	48 89 c7             	mov    %rax,%rdi
    5517:	e8 db 02 00 00       	callq  57f7 <_ZNSt6vectorIjSaIjEE11_S_max_sizeERKS0_>
    551c:	c9                   	leaveq 
    551d:	c3                   	retq   

000000000000551e <_ZNSt6vectorIjSaIjEE14_S_do_relocateEPjS2_S2_RS0_St17integral_constantIbLb1EE>:
    551e:	f3 0f 1e fa          	endbr64 
    5522:	55                   	push   %rbp
    5523:	48 89 e5             	mov    %rsp,%rbp
    5526:	48 83 ec 20          	sub    $0x20,%rsp
    552a:	48 89 7d f8          	mov    %rdi,-0x8(%rbp)
    552e:	48 89 75 f0          	mov    %rsi,-0x10(%rbp)
    5532:	48 89 55 e8          	mov    %rdx,-0x18(%rbp)
    5536:	48 89 4d e0          	mov    %rcx,-0x20(%rbp)
    553a:	48 8b 4d e0          	mov    -0x20(%rbp),%rcx
    553e:	48 8b 55 e8          	mov    -0x18(%rbp),%rdx
    5542:	48 8b 75 f0          	mov    -0x10(%rbp),%rsi
    5546:	48 8b 45 f8          	mov    -0x8(%rbp),%rax
    554a:	48 89 c7             	mov    %rax,%rdi
    554d:	e8 0e 03 00 00       	callq  5860 <_ZSt12__relocate_aIPjS0_SaIjEET0_T_S3_S2_RT1_>
    5552:	c9                   	leaveq 
    5553:	c3                   	retq   

0000000000005554 <_ZNSt6vectorIS_IjSaIjEESaIS1_EE11_S_max_sizeERKS2_>:
    5554:	f3 0f 1e fa          	endbr64 
    5558:	55                   	push   %rbp
    5559:	48 89 e5             	mov    %rsp,%rbp
    555c:	48 83 ec 30          	sub    $0x30,%rsp
    5560:	48 89 7d d8          	mov    %rdi,-0x28(%rbp)
    5564:	64 48 8b 04 25 28 00 	mov    %fs:0x28,%rax
    556b:	00 00 
    556d:	48 89 45 f8          	mov    %rax,-0x8(%rbp)
    5571:	31 c0                	xor    %eax,%eax
    5573:	48 b8 55 55 55 55 55 	movabs $0x555555555555555,%rax
    557a:	55 55 05 
    557d:	48 89 45 e8          	mov    %rax,-0x18(%rbp)
    5581:	48 8b 45 d8          	mov    -0x28(%rbp),%rax
    5585:	48 89 c7             	mov    %rax,%rdi
    5588:	e8 3a 03 00 00       	callq  58c7 <_ZNSt16allocator_traitsISaISt6vectorIjSaIjEEEE8max_sizeERKS3_>
    558d:	48 89 45 f0          	mov    %rax,-0x10(%rbp)
    5591:	48 8d 55 f0          	lea    -0x10(%rbp),%rdx
    5595:	48 8d 45 e8          	lea    -0x18(%rbp),%rax
    5599:	48 89 d6             	mov    %rdx,%rsi
    559c:	48 89 c7             	mov    %rax,%rdi
    559f:	e8 41 03 00 00       	callq  58e5 <_ZSt3minImERKT_S2_S2_>
    55a4:	48 8b 00             	mov    (%rax),%rax
    55a7:	48 8b 55 f8          	mov    -0x8(%rbp),%rdx
    55ab:	64 48 2b 14 25 28 00 	sub    %fs:0x28,%rdx
    55b2:	00 00 
    55b4:	74 05                	je     55bb <_ZNSt6vectorIS_IjSaIjEESaIS1_EE11_S_max_sizeERKS2_+0x67>
    55b6:	e8 05 cf ff ff       	callq  24c0 <__stack_chk_fail@plt>
    55bb:	c9                   	leaveq 
    55bc:	c3                   	retq   
    55bd:	90                   	nop

00000000000055be <_ZNKSt12_Vector_baseISt6vectorIjSaIjEESaIS2_EE19_M_get_Tp_allocatorEv>:
    55be:	f3 0f 1e fa          	endbr64 
    55c2:	55                   	push   %rbp
    55c3:	48 89 e5             	mov    %rsp,%rbp
    55c6:	48 89 7d f8          	mov    %rdi,-0x8(%rbp)
    55ca:	48 8b 45 f8          	mov    -0x8(%rbp),%rax
    55ce:	5d                   	pop    %rbp
    55cf:	c3                   	retq   

00000000000055d0 <_ZNK9__gnu_cxx13new_allocatorISt6vectorIjSaIjEEE11_M_max_sizeEv>:
    55d0:	f3 0f 1e fa          	endbr64 
    55d4:	55                   	push   %rbp
    55d5:	48 89 e5             	mov    %rsp,%rbp
    55d8:	48 89 7d f8          	mov    %rdi,-0x8(%rbp)
    55dc:	48 b8 55 55 55 55 55 	movabs $0x555555555555555,%rax
    55e3:	55 55 05 
    55e6:	5d                   	pop    %rbp
    55e7:	c3                   	retq   

00000000000055e8 <_ZN9__gnu_cxx13new_allocatorISt6vectorIjSaIjEEE8allocateEmPKv>:
    55e8:	f3 0f 1e fa          	endbr64 
    55ec:	55                   	push   %rbp
    55ed:	48 89 e5             	mov    %rsp,%rbp
    55f0:	48 83 ec 20          	sub    $0x20,%rsp
    55f4:	48 89 7d f8          	mov    %rdi,-0x8(%rbp)
    55f8:	48 89 75 f0          	mov    %rsi,-0x10(%rbp)
    55fc:	48 89 55 e8          	mov    %rdx,-0x18(%rbp)
    5600:	48 8b 45 f8          	mov    -0x8(%rbp),%rax
    5604:	48 89 c7             	mov    %rax,%rdi
    5607:	e8 c4 ff ff ff       	callq  55d0 <_ZNK9__gnu_cxx13new_allocatorISt6vectorIjSaIjEEE11_M_max_sizeEv>
    560c:	48 39 45 f0          	cmp    %rax,-0x10(%rbp)
    5610:	0f 97 c0             	seta   %al
    5613:	0f b6 c0             	movzbl %al,%eax
    5616:	48 85 c0             	test   %rax,%rax
    5619:	0f 95 c0             	setne  %al
    561c:	84 c0                	test   %al,%al
    561e:	74 1a                	je     563a <_ZN9__gnu_cxx13new_allocatorISt6vectorIjSaIjEEE8allocateEmPKv+0x52>
    5620:	48 b8 aa aa aa aa aa 	movabs $0xaaaaaaaaaaaaaaa,%rax
    5627:	aa aa 0a 
    562a:	48 39 45 f0          	cmp    %rax,-0x10(%rbp)
    562e:	76 05                	jbe    5635 <_ZN9__gnu_cxx13new_allocatorISt6vectorIjSaIjEEE8allocateEmPKv+0x4d>
    5630:	e8 bb cd ff ff       	callq  23f0 <_ZSt28__throw_bad_array_new_lengthv@plt>
    5635:	e8 26 cd ff ff       	callq  2360 <_ZSt17__throw_bad_allocv@plt>
    563a:	48 8b 55 f0          	mov    -0x10(%rbp),%rdx
    563e:	48 89 d0             	mov    %rdx,%rax
    5641:	48 01 c0             	add    %rax,%rax
    5644:	48 01 d0             	add    %rdx,%rax
    5647:	48 c1 e0 03          	shl    $0x3,%rax
    564b:	48 89 c7             	mov    %rax,%rdi
    564e:	e8 fd cd ff ff       	callq  2450 <_Znwm@plt>
    5653:	90                   	nop
    5654:	c9                   	leaveq 
    5655:	c3                   	retq   

0000000000005656 <_ZSt12__relocate_aIPSt6vectorIjSaIjEES3_SaIS2_EET0_T_S6_S5_RT1_>:
    5656:	f3 0f 1e fa          	endbr64 
    565a:	55                   	push   %rbp
    565b:	48 89 e5             	mov    %rsp,%rbp
    565e:	41 54                	push   %r12
    5660:	53                   	push   %rbx
    5661:	48 83 ec 20          	sub    $0x20,%rsp
    5665:	48 89 7d e8          	mov    %rdi,-0x18(%rbp)
    5669:	48 89 75 e0          	mov    %rsi,-0x20(%rbp)
    566d:	48 89 55 d8          	mov    %rdx,-0x28(%rbp)
    5671:	48 89 4d d0          	mov    %rcx,-0x30(%rbp)
    5675:	48 8b 45 d8          	mov    -0x28(%rbp),%rax
    5679:	48 89 c7             	mov    %rax,%rdi
    567c:	e8 93 02 00 00       	callq  5914 <_ZSt12__niter_baseIPSt6vectorIjSaIjEEET_S4_>
    5681:	49 89 c4             	mov    %rax,%r12
    5684:	48 8b 45 e0          	mov    -0x20(%rbp),%rax
    5688:	48 89 c7             	mov    %rax,%rdi
    568b:	e8 84 02 00 00       	callq  5914 <_ZSt12__niter_baseIPSt6vectorIjSaIjEEET_S4_>
    5690:	48 89 c3             	mov    %rax,%rbx
    5693:	48 8b 45 e8          	mov    -0x18(%rbp),%rax
    5697:	48 89 c7             	mov    %rax,%rdi
    569a:	e8 75 02 00 00       	callq  5914 <_ZSt12__niter_baseIPSt6vectorIjSaIjEEET_S4_>
    569f:	48 89 c7             	mov    %rax,%rdi
    56a2:	48 8b 45 d0          	mov    -0x30(%rbp),%rax
    56a6:	48 89 c1             	mov    %rax,%rcx
    56a9:	4c 89 e2             	mov    %r12,%rdx
    56ac:	48 89 de             	mov    %rbx,%rsi
    56af:	e8 72 02 00 00       	callq  5926 <_ZSt14__relocate_a_1IPSt6vectorIjSaIjEES3_SaIS2_EET0_T_S6_S5_RT1_>
    56b4:	48 83 c4 20          	add    $0x20,%rsp
    56b8:	5b                   	pop    %rbx
    56b9:	41 5c                	pop    %r12
    56bb:	5d                   	pop    %rbp
    56bc:	c3                   	retq   

00000000000056bd <_ZNSt12_Destroy_auxILb0EE9__destroyIPSt6vectorIjSaIjEEEEvT_S6_>:
    56bd:	f3 0f 1e fa          	endbr64 
    56c1:	55                   	push   %rbp
    56c2:	48 89 e5             	mov    %rsp,%rbp
    56c5:	48 83 ec 10          	sub    $0x10,%rsp
    56c9:	48 89 7d f8          	mov    %rdi,-0x8(%rbp)
    56cd:	48 89 75 f0          	mov    %rsi,-0x10(%rbp)
    56d1:	eb 19                	jmp    56ec <_ZNSt12_Destroy_auxILb0EE9__destroyIPSt6vectorIjSaIjEEEEvT_S6_+0x2f>
    56d3:	48 8b 45 f8          	mov    -0x8(%rbp),%rax
    56d7:	48 89 c7             	mov    %rax,%rdi
    56da:	e8 bc 02 00 00       	callq  599b <_ZSt11__addressofISt6vectorIjSaIjEEEPT_RS3_>
    56df:	48 89 c7             	mov    %rax,%rdi
    56e2:	e8 c6 02 00 00       	callq  59ad <_ZSt8_DestroyISt6vectorIjSaIjEEEvPT_>
    56e7:	48 83 45 f8 18       	addq   $0x18,-0x8(%rbp)
    56ec:	48 8b 45 f8          	mov    -0x8(%rbp),%rax
    56f0:	48 3b 45 f0          	cmp    -0x10(%rbp),%rax
    56f4:	75 dd                	jne    56d3 <_ZNSt12_Destroy_auxILb0EE9__destroyIPSt6vectorIjSaIjEEEEvT_S6_+0x16>
    56f6:	90                   	nop
    56f7:	90                   	nop
    56f8:	c9                   	leaveq 
    56f9:	c3                   	retq   

00000000000056fa <_ZNK9__gnu_cxx13new_allocatorIjE11_M_max_sizeEv>:
    56fa:	f3 0f 1e fa          	endbr64 
    56fe:	55                   	push   %rbp
    56ff:	48 89 e5             	mov    %rsp,%rbp
    5702:	48 89 7d f8          	mov    %rdi,-0x8(%rbp)
    5706:	48 b8 ff ff ff ff ff 	movabs $0x1fffffffffffffff,%rax
    570d:	ff ff 1f 
    5710:	5d                   	pop    %rbp
    5711:	c3                   	retq   

0000000000005712 <_ZN9__gnu_cxx13new_allocatorIjE8allocateEmPKv>:
    5712:	f3 0f 1e fa          	endbr64 
    5716:	55                   	push   %rbp
    5717:	48 89 e5             	mov    %rsp,%rbp
    571a:	48 83 ec 20          	sub    $0x20,%rsp
    571e:	48 89 7d f8          	mov    %rdi,-0x8(%rbp)
    5722:	48 89 75 f0          	mov    %rsi,-0x10(%rbp)
    5726:	48 89 55 e8          	mov    %rdx,-0x18(%rbp)
    572a:	48 8b 45 f8          	mov    -0x8(%rbp),%rax
    572e:	48 89 c7             	mov    %rax,%rdi
    5731:	e8 c4 ff ff ff       	callq  56fa <_ZNK9__gnu_cxx13new_allocatorIjE11_M_max_sizeEv>
    5736:	48 39 45 f0          	cmp    %rax,-0x10(%rbp)
    573a:	0f 97 c0             	seta   %al
    573d:	0f b6 c0             	movzbl %al,%eax
    5740:	48 85 c0             	test   %rax,%rax
    5743:	0f 95 c0             	setne  %al
    5746:	84 c0                	test   %al,%al
    5748:	74 1a                	je     5764 <_ZN9__gnu_cxx13new_allocatorIjE8allocateEmPKv+0x52>
    574a:	48 b8 ff ff ff ff ff 	movabs $0x3fffffffffffffff,%rax
    5751:	ff ff 3f 
    5754:	48 39 45 f0          	cmp    %rax,-0x10(%rbp)
    5758:	76 05                	jbe    575f <_ZN9__gnu_cxx13new_allocatorIjE8allocateEmPKv+0x4d>
    575a:	e8 91 cc ff ff       	callq  23f0 <_ZSt28__throw_bad_array_new_lengthv@plt>
    575f:	e8 fc cb ff ff       	callq  2360 <_ZSt17__throw_bad_allocv@plt>
    5764:	48 8b 45 f0          	mov    -0x10(%rbp),%rax
    5768:	48 c1 e0 02          	shl    $0x2,%rax
    576c:	48 89 c7             	mov    %rax,%rdi
    576f:	e8 dc cc ff ff       	callq  2450 <_Znwm@plt>
    5774:	90                   	nop
    5775:	c9                   	leaveq 
    5776:	c3                   	retq   

0000000000005777 <_ZSt12__miter_baseIN9__gnu_cxx17__normal_iteratorIPKjSt6vectorIjSaIjEEEEET_S8_>:
    5777:	f3 0f 1e fa          	endbr64 
    577b:	55                   	push   %rbp
    577c:	48 89 e5             	mov    %rsp,%rbp
    577f:	48 89 7d f8          	mov    %rdi,-0x8(%rbp)
    5783:	48 8b 45 f8          	mov    -0x8(%rbp),%rax
    5787:	5d                   	pop    %rbp
    5788:	c3                   	retq   

0000000000005789 <_ZSt13__copy_move_aILb0EN9__gnu_cxx17__normal_iteratorIPKjSt6vectorIjSaIjEEEEPjET1_T0_SA_S9_>:
    5789:	f3 0f 1e fa          	endbr64 
    578d:	55                   	push   %rbp
    578e:	48 89 e5             	mov    %rsp,%rbp
    5791:	41 54                	push   %r12
    5793:	53                   	push   %rbx
    5794:	48 83 ec 20          	sub    $0x20,%rsp
    5798:	48 89 7d e8          	mov    %rdi,-0x18(%rbp)
    579c:	48 89 75 e0          	mov    %rsi,-0x20(%rbp)
    57a0:	48 89 55 d8          	mov    %rdx,-0x28(%rbp)
    57a4:	48 8b 45 d8          	mov    -0x28(%rbp),%rax
    57a8:	48 89 c7             	mov    %rax,%rdi
    57ab:	e8 3d 02 00 00       	callq  59ed <_ZSt12__niter_baseIPjET_S1_>
    57b0:	49 89 c4             	mov    %rax,%r12
    57b3:	48 8b 45 e0          	mov    -0x20(%rbp),%rax
    57b7:	48 89 c7             	mov    %rax,%rdi
    57ba:	e8 0d 02 00 00       	callq  59cc <_ZSt12__niter_baseIPKjSt6vectorIjSaIjEEET_N9__gnu_cxx17__normal_iteratorIS5_T0_EE>
    57bf:	48 89 c3             	mov    %rax,%rbx
    57c2:	48 8b 45 e8          	mov    -0x18(%rbp),%rax
    57c6:	48 89 c7             	mov    %rax,%rdi
    57c9:	e8 fe 01 00 00       	callq  59cc <_ZSt12__niter_baseIPKjSt6vectorIjSaIjEEET_N9__gnu_cxx17__normal_iteratorIS5_T0_EE>
    57ce:	4c 89 e2             	mov    %r12,%rdx
    57d1:	48 89 de             	mov    %rbx,%rsi
    57d4:	48 89 c7             	mov    %rax,%rdi
    57d7:	e8 23 02 00 00       	callq  59ff <_ZSt14__copy_move_a1ILb0EPKjPjET1_T0_S4_S3_>
    57dc:	48 89 c2             	mov    %rax,%rdx
    57df:	48 8d 45 d8          	lea    -0x28(%rbp),%rax
    57e3:	48 89 d6             	mov    %rdx,%rsi
    57e6:	48 89 c7             	mov    %rax,%rdi
    57e9:	e8 42 02 00 00       	callq  5a30 <_ZSt12__niter_wrapIPjET_RKS1_S1_>
    57ee:	48 83 c4 20          	add    $0x20,%rsp
    57f2:	5b                   	pop    %rbx
    57f3:	41 5c                	pop    %r12
    57f5:	5d                   	pop    %rbp
    57f6:	c3                   	retq   

00000000000057f7 <_ZNSt6vectorIjSaIjEE11_S_max_sizeERKS0_>:
    57f7:	f3 0f 1e fa          	endbr64 
    57fb:	55                   	push   %rbp
    57fc:	48 89 e5             	mov    %rsp,%rbp
    57ff:	48 83 ec 30          	sub    $0x30,%rsp
    5803:	48 89 7d d8          	mov    %rdi,-0x28(%rbp)
    5807:	64 48 8b 04 25 28 00 	mov    %fs:0x28,%rax
    580e:	00 00 
    5810:	48 89 45 f8          	mov    %rax,-0x8(%rbp)
    5814:	31 c0                	xor    %eax,%eax
    5816:	48 b8 ff ff ff ff ff 	movabs $0x1fffffffffffffff,%rax
    581d:	ff ff 1f 
    5820:	48 89 45 e8          	mov    %rax,-0x18(%rbp)
    5824:	48 8b 45 d8          	mov    -0x28(%rbp),%rax
    5828:	48 89 c7             	mov    %rax,%rdi
    582b:	e8 16 02 00 00       	callq  5a46 <_ZNSt16allocator_traitsISaIjEE8max_sizeERKS0_>
    5830:	48 89 45 f0          	mov    %rax,-0x10(%rbp)
    5834:	48 8d 55 f0          	lea    -0x10(%rbp),%rdx
    5838:	48 8d 45 e8          	lea    -0x18(%rbp),%rax
    583c:	48 89 d6             	mov    %rdx,%rsi
    583f:	48 89 c7             	mov    %rax,%rdi
    5842:	e8 9e 00 00 00       	callq  58e5 <_ZSt3minImERKT_S2_S2_>
    5847:	48 8b 00             	mov    (%rax),%rax
    584a:	48 8b 55 f8          	mov    -0x8(%rbp),%rdx
    584e:	64 48 2b 14 25 28 00 	sub    %fs:0x28,%rdx
    5855:	00 00 
    5857:	74 05                	je     585e <_ZNSt6vectorIjSaIjEE11_S_max_sizeERKS0_+0x67>
    5859:	e8 62 cc ff ff       	callq  24c0 <__stack_chk_fail@plt>
    585e:	c9                   	leaveq 
    585f:	c3                   	retq   

0000000000005860 <_ZSt12__relocate_aIPjS0_SaIjEET0_T_S3_S2_RT1_>:
    5860:	f3 0f 1e fa          	endbr64 
    5864:	55                   	push   %rbp
    5865:	48 89 e5             	mov    %rsp,%rbp
    5868:	41 54                	push   %r12
    586a:	53                   	push   %rbx
    586b:	48 83 ec 20          	sub    $0x20,%rsp
    586f:	48 89 7d e8          	mov    %rdi,-0x18(%rbp)
    5873:	48 89 75 e0          	mov    %rsi,-0x20(%rbp)
    5877:	48 89 55 d8          	mov    %rdx,-0x28(%rbp)
    587b:	48 89 4d d0          	mov    %rcx,-0x30(%rbp)
    587f:	48 8b 45 d8          	mov    -0x28(%rbp),%rax
    5883:	48 89 c7             	mov    %rax,%rdi
    5886:	e8 62 01 00 00       	callq  59ed <_ZSt12__niter_baseIPjET_S1_>
    588b:	49 89 c4             	mov    %rax,%r12
    588e:	48 8b 45 e0          	mov    -0x20(%rbp),%rax
    5892:	48 89 c7             	mov    %rax,%rdi
    5895:	e8 53 01 00 00       	callq  59ed <_ZSt12__niter_baseIPjET_S1_>
    589a:	48 89 c3             	mov    %rax,%rbx
    589d:	48 8b 45 e8          	mov    -0x18(%rbp),%rax
    58a1:	48 89 c7             	mov    %rax,%rdi
    58a4:	e8 44 01 00 00       	callq  59ed <_ZSt12__niter_baseIPjET_S1_>
    58a9:	48 89 c7             	mov    %rax,%rdi
    58ac:	48 8b 45 d0          	mov    -0x30(%rbp),%rax
    58b0:	48 89 c1             	mov    %rax,%rcx
    58b3:	4c 89 e2             	mov    %r12,%rdx
    58b6:	48 89 de             	mov    %rbx,%rsi
    58b9:	e8 a6 01 00 00       	callq  5a64 <_ZSt14__relocate_a_1IjjENSt9enable_ifIXsrSt24__is_bitwise_relocatableIT_vE5valueEPS2_E4typeES4_S4_S4_RSaIT0_E>
    58be:	48 83 c4 20          	add    $0x20,%rsp
    58c2:	5b                   	pop    %rbx
    58c3:	41 5c                	pop    %r12
    58c5:	5d                   	pop    %rbp
    58c6:	c3                   	retq   

00000000000058c7 <_ZNSt16allocator_traitsISaISt6vectorIjSaIjEEEE8max_sizeERKS3_>:
    58c7:	f3 0f 1e fa          	endbr64 
    58cb:	55                   	push   %rbp
    58cc:	48 89 e5             	mov    %rsp,%rbp
    58cf:	48 83 ec 10          	sub    $0x10,%rsp
    58d3:	48 89 7d f8          	mov    %rdi,-0x8(%rbp)
    58d7:	48 8b 45 f8          	mov    -0x8(%rbp),%rax
    58db:	48 89 c7             	mov    %rax,%rdi
    58de:	e8 e9 01 00 00       	callq  5acc <_ZNK9__gnu_cxx13new_allocatorISt6vectorIjSaIjEEE8max_sizeEv>
    58e3:	c9                   	leaveq 
    58e4:	c3                   	retq   

00000000000058e5 <_ZSt3minImERKT_S2_S2_>:
    58e5:	f3 0f 1e fa          	endbr64 
    58e9:	55                   	push   %rbp
    58ea:	48 89 e5             	mov    %rsp,%rbp
    58ed:	48 89 7d f8          	mov    %rdi,-0x8(%rbp)
    58f1:	48 89 75 f0          	mov    %rsi,-0x10(%rbp)
    58f5:	48 8b 45 f0          	mov    -0x10(%rbp),%rax
    58f9:	48 8b 10             	mov    (%rax),%rdx
    58fc:	48 8b 45 f8          	mov    -0x8(%rbp),%rax
    5900:	48 8b 00             	mov    (%rax),%rax
    5903:	48 39 c2             	cmp    %rax,%rdx
    5906:	73 06                	jae    590e <_ZSt3minImERKT_S2_S2_+0x29>
    5908:	48 8b 45 f0          	mov    -0x10(%rbp),%rax
    590c:	eb 04                	jmp    5912 <_ZSt3minImERKT_S2_S2_+0x2d>
    590e:	48 8b 45 f8          	mov    -0x8(%rbp),%rax
    5912:	5d                   	pop    %rbp
    5913:	c3                   	retq   

0000000000005914 <_ZSt12__niter_baseIPSt6vectorIjSaIjEEET_S4_>:
    5914:	f3 0f 1e fa          	endbr64 
    5918:	55                   	push   %rbp
    5919:	48 89 e5             	mov    %rsp,%rbp
    591c:	48 89 7d f8          	mov    %rdi,-0x8(%rbp)
    5920:	48 8b 45 f8          	mov    -0x8(%rbp),%rax
    5924:	5d                   	pop    %rbp
    5925:	c3                   	retq   

0000000000005926 <_ZSt14__relocate_a_1IPSt6vectorIjSaIjEES3_SaIS2_EET0_T_S6_S5_RT1_>:
    5926:	f3 0f 1e fa          	endbr64 
    592a:	55                   	push   %rbp
    592b:	48 89 e5             	mov    %rsp,%rbp
    592e:	53                   	push   %rbx
    592f:	48 83 ec 38          	sub    $0x38,%rsp
    5933:	48 89 7d d8          	mov    %rdi,-0x28(%rbp)
    5937:	48 89 75 d0          	mov    %rsi,-0x30(%rbp)
    593b:	48 89 55 c8          	mov    %rdx,-0x38(%rbp)
    593f:	48 89 4d c0          	mov    %rcx,-0x40(%rbp)
    5943:	48 8b 45 c8          	mov    -0x38(%rbp),%rax
    5947:	48 89 45 e8          	mov    %rax,-0x18(%rbp)
    594b:	eb 3a                	jmp    5987 <_ZSt14__relocate_a_1IPSt6vectorIjSaIjEES3_SaIS2_EET0_T_S6_S5_RT1_+0x61>
    594d:	48 8b 45 d8          	mov    -0x28(%rbp),%rax
    5951:	48 89 c7             	mov    %rax,%rdi
    5954:	e8 42 00 00 00       	callq  599b <_ZSt11__addressofISt6vectorIjSaIjEEEPT_RS3_>
    5959:	48 89 c3             	mov    %rax,%rbx
    595c:	48 8b 45 e8          	mov    -0x18(%rbp),%rax
    5960:	48 89 c7             	mov    %rax,%rdi
    5963:	e8 33 00 00 00       	callq  599b <_ZSt11__addressofISt6vectorIjSaIjEEEPT_RS3_>
    5968:	48 89 c1             	mov    %rax,%rcx
    596b:	48 8b 45 c0          	mov    -0x40(%rbp),%rax
    596f:	48 89 c2             	mov    %rax,%rdx
    5972:	48 89 de             	mov    %rbx,%rsi
    5975:	48 89 cf             	mov    %rcx,%rdi
    5978:	e8 6d 01 00 00       	callq  5aea <_ZSt19__relocate_object_aISt6vectorIjSaIjEES2_SaIS2_EEvPT_PT0_RT1_>
    597d:	48 83 45 d8 18       	addq   $0x18,-0x28(%rbp)
    5982:	48 83 45 e8 18       	addq   $0x18,-0x18(%rbp)
    5987:	48 8b 45 d8          	mov    -0x28(%rbp),%rax
    598b:	48 3b 45 d0          	cmp    -0x30(%rbp),%rax
    598f:	75 bc                	jne    594d <_ZSt14__relocate_a_1IPSt6vectorIjSaIjEES3_SaIS2_EET0_T_S6_S5_RT1_+0x27>
    5991:	48 8b 45 e8          	mov    -0x18(%rbp),%rax
    5995:	48 8b 5d f8          	mov    -0x8(%rbp),%rbx
    5999:	c9                   	leaveq 
    599a:	c3                   	retq   

000000000000599b <_ZSt11__addressofISt6vectorIjSaIjEEEPT_RS3_>:
    599b:	f3 0f 1e fa          	endbr64 
    599f:	55                   	push   %rbp
    59a0:	48 89 e5             	mov    %rsp,%rbp
    59a3:	48 89 7d f8          	mov    %rdi,-0x8(%rbp)
    59a7:	48 8b 45 f8          	mov    -0x8(%rbp),%rax
    59ab:	5d                   	pop    %rbp
    59ac:	c3                   	retq   

00000000000059ad <_ZSt8_DestroyISt6vectorIjSaIjEEEvPT_>:
    59ad:	f3 0f 1e fa          	endbr64 
    59b1:	55                   	push   %rbp
    59b2:	48 89 e5             	mov    %rsp,%rbp
    59b5:	48 83 ec 10          	sub    $0x10,%rsp
    59b9:	48 89 7d f8          	mov    %rdi,-0x8(%rbp)
    59bd:	48 8b 45 f8          	mov    -0x8(%rbp),%rax
    59c1:	48 89 c7             	mov    %rax,%rdi
    59c4:	e8 27 d8 ff ff       	callq  31f0 <_ZNSt6vectorIjSaIjEED1Ev>
    59c9:	90                   	nop
    59ca:	c9                   	leaveq 
    59cb:	c3                   	retq   

00000000000059cc <_ZSt12__niter_baseIPKjSt6vectorIjSaIjEEET_N9__gnu_cxx17__normal_iteratorIS5_T0_EE>:
    59cc:	f3 0f 1e fa          	endbr64 
    59d0:	55                   	push   %rbp
    59d1:	48 89 e5             	mov    %rsp,%rbp
    59d4:	48 83 ec 10          	sub    $0x10,%rsp
    59d8:	48 89 7d f8          	mov    %rdi,-0x8(%rbp)
    59dc:	48 8d 45 f8          	lea    -0x8(%rbp),%rax
    59e0:	48 89 c7             	mov    %rax,%rdi
    59e3:	e8 5e 01 00 00       	callq  5b46 <_ZNK9__gnu_cxx17__normal_iteratorIPKjSt6vectorIjSaIjEEE4baseEv>
    59e8:	48 8b 00             	mov    (%rax),%rax
    59eb:	c9                   	leaveq 
    59ec:	c3                   	retq   

00000000000059ed <_ZSt12__niter_baseIPjET_S1_>:
    59ed:	f3 0f 1e fa          	endbr64 
    59f1:	55                   	push   %rbp
    59f2:	48 89 e5             	mov    %rsp,%rbp
    59f5:	48 89 7d f8          	mov    %rdi,-0x8(%rbp)
    59f9:	48 8b 45 f8          	mov    -0x8(%rbp),%rax
    59fd:	5d                   	pop    %rbp
    59fe:	c3                   	retq   

00000000000059ff <_ZSt14__copy_move_a1ILb0EPKjPjET1_T0_S4_S3_>:
    59ff:	f3 0f 1e fa          	endbr64 
    5a03:	55                   	push   %rbp
    5a04:	48 89 e5             	mov    %rsp,%rbp
    5a07:	48 83 ec 20          	sub    $0x20,%rsp
    5a0b:	48 89 7d f8          	mov    %rdi,-0x8(%rbp)
    5a0f:	48 89 75 f0          	mov    %rsi,-0x10(%rbp)
    5a13:	48 89 55 e8          	mov    %rdx,-0x18(%rbp)
    5a17:	48 8b 55 e8          	mov    -0x18(%rbp),%rdx
    5a1b:	48 8b 4d f0          	mov    -0x10(%rbp),%rcx
    5a1f:	48 8b 45 f8          	mov    -0x8(%rbp),%rax
    5a23:	48 89 ce             	mov    %rcx,%rsi
    5a26:	48 89 c7             	mov    %rax,%rdi
    5a29:	e8 2a 01 00 00       	callq  5b58 <_ZSt14__copy_move_a2ILb0EPKjPjET1_T0_S4_S3_>
    5a2e:	c9                   	leaveq 
    5a2f:	c3                   	retq   

0000000000005a30 <_ZSt12__niter_wrapIPjET_RKS1_S1_>:
    5a30:	f3 0f 1e fa          	endbr64 
    5a34:	55                   	push   %rbp
    5a35:	48 89 e5             	mov    %rsp,%rbp
    5a38:	48 89 7d f8          	mov    %rdi,-0x8(%rbp)
    5a3c:	48 89 75 f0          	mov    %rsi,-0x10(%rbp)
    5a40:	48 8b 45 f0          	mov    -0x10(%rbp),%rax
    5a44:	5d                   	pop    %rbp
    5a45:	c3                   	retq   

0000000000005a46 <_ZNSt16allocator_traitsISaIjEE8max_sizeERKS0_>:
    5a46:	f3 0f 1e fa          	endbr64 
    5a4a:	55                   	push   %rbp
    5a4b:	48 89 e5             	mov    %rsp,%rbp
    5a4e:	48 83 ec 10          	sub    $0x10,%rsp
    5a52:	48 89 7d f8          	mov    %rdi,-0x8(%rbp)
    5a56:	48 8b 45 f8          	mov    -0x8(%rbp),%rax
    5a5a:	48 89 c7             	mov    %rax,%rdi
    5a5d:	e8 28 01 00 00       	callq  5b8a <_ZNK9__gnu_cxx13new_allocatorIjE8max_sizeEv>
    5a62:	c9                   	leaveq 
    5a63:	c3                   	retq   

0000000000005a64 <_ZSt14__relocate_a_1IjjENSt9enable_ifIXsrSt24__is_bitwise_relocatableIT_vE5valueEPS2_E4typeES4_S4_S4_RSaIT0_E>:
    5a64:	f3 0f 1e fa          	endbr64 
    5a68:	55                   	push   %rbp
    5a69:	48 89 e5             	mov    %rsp,%rbp
    5a6c:	48 83 ec 30          	sub    $0x30,%rsp
    5a70:	48 89 7d e8          	mov    %rdi,-0x18(%rbp)
    5a74:	48 89 75 e0          	mov    %rsi,-0x20(%rbp)
    5a78:	48 89 55 d8          	mov    %rdx,-0x28(%rbp)
    5a7c:	48 89 4d d0          	mov    %rcx,-0x30(%rbp)
    5a80:	48 8b 45 e0          	mov    -0x20(%rbp),%rax
    5a84:	48 2b 45 e8          	sub    -0x18(%rbp),%rax
    5a88:	48 c1 f8 02          	sar    $0x2,%rax
    5a8c:	48 89 45 f8          	mov    %rax,-0x8(%rbp)
    5a90:	48 83 7d f8 00       	cmpq   $0x0,-0x8(%rbp)
    5a95:	7e 1f                	jle    5ab6 <_ZSt14__relocate_a_1IjjENSt9enable_ifIXsrSt24__is_bitwise_relocatableIT_vE5valueEPS2_E4typeES4_S4_S4_RSaIT0_E+0x52>
    5a97:	48 8b 45 f8          	mov    -0x8(%rbp),%rax
    5a9b:	48 8d 14 85 00 00 00 	lea    0x0(,%rax,4),%rdx
    5aa2:	00 
    5aa3:	48 8b 4d e8          	mov    -0x18(%rbp),%rcx
    5aa7:	48 8b 45 d8          	mov    -0x28(%rbp),%rax
    5aab:	48 89 ce             	mov    %rcx,%rsi
    5aae:	48 89 c7             	mov    %rax,%rdi
    5ab1:	e8 8a ca ff ff       	callq  2540 <memmove@plt>
    5ab6:	48 8b 45 f8          	mov    -0x8(%rbp),%rax
    5aba:	48 8d 14 85 00 00 00 	lea    0x0(,%rax,4),%rdx
    5ac1:	00 
    5ac2:	48 8b 45 d8          	mov    -0x28(%rbp),%rax
    5ac6:	48 01 d0             	add    %rdx,%rax
    5ac9:	c9                   	leaveq 
    5aca:	c3                   	retq   
    5acb:	90                   	nop

0000000000005acc <_ZNK9__gnu_cxx13new_allocatorISt6vectorIjSaIjEEE8max_sizeEv>:
    5acc:	f3 0f 1e fa          	endbr64 
    5ad0:	55                   	push   %rbp
    5ad1:	48 89 e5             	mov    %rsp,%rbp
    5ad4:	48 83 ec 10          	sub    $0x10,%rsp
    5ad8:	48 89 7d f8          	mov    %rdi,-0x8(%rbp)
    5adc:	48 8b 45 f8          	mov    -0x8(%rbp),%rax
    5ae0:	48 89 c7             	mov    %rax,%rdi
    5ae3:	e8 e8 fa ff ff       	callq  55d0 <_ZNK9__gnu_cxx13new_allocatorISt6vectorIjSaIjEEE11_M_max_sizeEv>
    5ae8:	c9                   	leaveq 
    5ae9:	c3                   	retq   

0000000000005aea <_ZSt19__relocate_object_aISt6vectorIjSaIjEES2_SaIS2_EEvPT_PT0_RT1_>:
    5aea:	f3 0f 1e fa          	endbr64 
    5aee:	55                   	push   %rbp
    5aef:	48 89 e5             	mov    %rsp,%rbp
    5af2:	48 83 ec 20          	sub    $0x20,%rsp
    5af6:	48 89 7d f8          	mov    %rdi,-0x8(%rbp)
    5afa:	48 89 75 f0          	mov    %rsi,-0x10(%rbp)
    5afe:	48 89 55 e8          	mov    %rdx,-0x18(%rbp)
    5b02:	48 8b 45 f0          	mov    -0x10(%rbp),%rax
    5b06:	48 89 c7             	mov    %rax,%rdi
    5b09:	e8 9a 00 00 00       	callq  5ba8 <_ZSt4moveIRSt6vectorIjSaIjEEEONSt16remove_referenceIT_E4typeEOS5_>
    5b0e:	48 89 c2             	mov    %rax,%rdx
    5b11:	48 8b 4d f8          	mov    -0x8(%rbp),%rcx
    5b15:	48 8b 45 e8          	mov    -0x18(%rbp),%rax
    5b19:	48 89 ce             	mov    %rcx,%rsi
    5b1c:	48 89 c7             	mov    %rax,%rdi
    5b1f:	e8 96 00 00 00       	callq  5bba <_ZNSt16allocator_traitsISaISt6vectorIjSaIjEEEE9constructIS2_JS2_EEEvRS3_PT_DpOT0_>
    5b24:	48 8b 45 f0          	mov    -0x10(%rbp),%rax
    5b28:	48 89 c7             	mov    %rax,%rdi
    5b2b:	e8 6b fe ff ff       	callq  599b <_ZSt11__addressofISt6vectorIjSaIjEEEPT_RS3_>
    5b30:	48 89 c2             	mov    %rax,%rdx
    5b33:	48 8b 45 e8          	mov    -0x18(%rbp),%rax
    5b37:	48 89 d6             	mov    %rdx,%rsi
    5b3a:	48 89 c7             	mov    %rax,%rdi
    5b3d:	e8 ec f3 ff ff       	callq  4f2e <_ZNSt16allocator_traitsISaISt6vectorIjSaIjEEEE7destroyIS2_EEvRS3_PT_>
    5b42:	90                   	nop
    5b43:	c9                   	leaveq 
    5b44:	c3                   	retq   
    5b45:	90                   	nop

0000000000005b46 <_ZNK9__gnu_cxx17__normal_iteratorIPKjSt6vectorIjSaIjEEE4baseEv>:
    5b46:	f3 0f 1e fa          	endbr64 
    5b4a:	55                   	push   %rbp
    5b4b:	48 89 e5             	mov    %rsp,%rbp
    5b4e:	48 89 7d f8          	mov    %rdi,-0x8(%rbp)
    5b52:	48 8b 45 f8          	mov    -0x8(%rbp),%rax
    5b56:	5d                   	pop    %rbp
    5b57:	c3                   	retq   

0000000000005b58 <_ZSt14__copy_move_a2ILb0EPKjPjET1_T0_S4_S3_>:
    5b58:	f3 0f 1e fa          	endbr64 
    5b5c:	55                   	push   %rbp
    5b5d:	48 89 e5             	mov    %rsp,%rbp
    5b60:	48 83 ec 20          	sub    $0x20,%rsp
    5b64:	48 89 7d f8          	mov    %rdi,-0x8(%rbp)
    5b68:	48 89 75 f0          	mov    %rsi,-0x10(%rbp)
    5b6c:	48 89 55 e8          	mov    %rdx,-0x18(%rbp)
    5b70:	48 8b 55 e8          	mov    -0x18(%rbp),%rdx
    5b74:	48 8b 4d f0          	mov    -0x10(%rbp),%rcx
    5b78:	48 8b 45 f8          	mov    -0x8(%rbp),%rax
    5b7c:	48 89 ce             	mov    %rcx,%rsi
    5b7f:	48 89 c7             	mov    %rax,%rdi
    5b82:	e8 70 00 00 00       	callq  5bf7 <_ZNSt11__copy_moveILb0ELb1ESt26random_access_iterator_tagE8__copy_mIjEEPT_PKS3_S6_S4_>
    5b87:	c9                   	leaveq 
    5b88:	c3                   	retq   
    5b89:	90                   	nop

0000000000005b8a <_ZNK9__gnu_cxx13new_allocatorIjE8max_sizeEv>:
    5b8a:	f3 0f 1e fa          	endbr64 
    5b8e:	55                   	push   %rbp
    5b8f:	48 89 e5             	mov    %rsp,%rbp
    5b92:	48 83 ec 10          	sub    $0x10,%rsp
    5b96:	48 89 7d f8          	mov    %rdi,-0x8(%rbp)
    5b9a:	48 8b 45 f8          	mov    -0x8(%rbp),%rax
    5b9e:	48 89 c7             	mov    %rax,%rdi
    5ba1:	e8 54 fb ff ff       	callq  56fa <_ZNK9__gnu_cxx13new_allocatorIjE11_M_max_sizeEv>
    5ba6:	c9                   	leaveq 
    5ba7:	c3                   	retq   

0000000000005ba8 <_ZSt4moveIRSt6vectorIjSaIjEEEONSt16remove_referenceIT_E4typeEOS5_>:
    5ba8:	f3 0f 1e fa          	endbr64 
    5bac:	55                   	push   %rbp
    5bad:	48 89 e5             	mov    %rsp,%rbp
    5bb0:	48 89 7d f8          	mov    %rdi,-0x8(%rbp)
    5bb4:	48 8b 45 f8          	mov    -0x8(%rbp),%rax
    5bb8:	5d                   	pop    %rbp
    5bb9:	c3                   	retq   

0000000000005bba <_ZNSt16allocator_traitsISaISt6vectorIjSaIjEEEE9constructIS2_JS2_EEEvRS3_PT_DpOT0_>:
    5bba:	f3 0f 1e fa          	endbr64 
    5bbe:	55                   	push   %rbp
    5bbf:	48 89 e5             	mov    %rsp,%rbp
    5bc2:	48 83 ec 20          	sub    $0x20,%rsp
    5bc6:	48 89 7d f8          	mov    %rdi,-0x8(%rbp)
    5bca:	48 89 75 f0          	mov    %rsi,-0x10(%rbp)
    5bce:	48 89 55 e8          	mov    %rdx,-0x18(%rbp)
    5bd2:	48 8b 45 e8          	mov    -0x18(%rbp),%rax
    5bd6:	48 89 c7             	mov    %rax,%rdi
    5bd9:	e8 7c 00 00 00       	callq  5c5a <_ZSt7forwardISt6vectorIjSaIjEEEOT_RNSt16remove_referenceIS3_E4typeE>
    5bde:	48 89 c2             	mov    %rax,%rdx
    5be1:	48 8b 4d f0          	mov    -0x10(%rbp),%rcx
    5be5:	48 8b 45 f8          	mov    -0x8(%rbp),%rax
    5be9:	48 89 ce             	mov    %rcx,%rsi
    5bec:	48 89 c7             	mov    %rax,%rdi
    5bef:	e8 cc 00 00 00       	callq  5cc0 <_ZN9__gnu_cxx13new_allocatorISt6vectorIjSaIjEEE9constructIS3_JS3_EEEvPT_DpOT0_>
    5bf4:	90                   	nop
    5bf5:	c9                   	leaveq 
    5bf6:	c3                   	retq   

0000000000005bf7 <_ZNSt11__copy_moveILb0ELb1ESt26random_access_iterator_tagE8__copy_mIjEEPT_PKS3_S6_S4_>:
    5bf7:	f3 0f 1e fa          	endbr64 
    5bfb:	55                   	push   %rbp
    5bfc:	48 89 e5             	mov    %rsp,%rbp
    5bff:	48 83 ec 30          	sub    $0x30,%rsp
    5c03:	48 89 7d e8          	mov    %rdi,-0x18(%rbp)
    5c07:	48 89 75 e0          	mov    %rsi,-0x20(%rbp)
    5c0b:	48 89 55 d8          	mov    %rdx,-0x28(%rbp)
    5c0f:	48 8b 45 e0          	mov    -0x20(%rbp),%rax
    5c13:	48 2b 45 e8          	sub    -0x18(%rbp),%rax
    5c17:	48 c1 f8 02          	sar    $0x2,%rax
    5c1b:	48 89 45 f8          	mov    %rax,-0x8(%rbp)
    5c1f:	48 83 7d f8 00       	cmpq   $0x0,-0x8(%rbp)
    5c24:	74 1f                	je     5c45 <_ZNSt11__copy_moveILb0ELb1ESt26random_access_iterator_tagE8__copy_mIjEEPT_PKS3_S6_S4_+0x4e>
    5c26:	48 8b 45 f8          	mov    -0x8(%rbp),%rax
    5c2a:	48 8d 14 85 00 00 00 	lea    0x0(,%rax,4),%rdx
    5c31:	00 
    5c32:	48 8b 4d e8          	mov    -0x18(%rbp),%rcx
    5c36:	48 8b 45 d8          	mov    -0x28(%rbp),%rax
    5c3a:	48 89 ce             	mov    %rcx,%rsi
    5c3d:	48 89 c7             	mov    %rax,%rdi
    5c40:	e8 fb c8 ff ff       	callq  2540 <memmove@plt>
    5c45:	48 8b 45 f8          	mov    -0x8(%rbp),%rax
    5c49:	48 8d 14 85 00 00 00 	lea    0x0(,%rax,4),%rdx
    5c50:	00 
    5c51:	48 8b 45 d8          	mov    -0x28(%rbp),%rax
    5c55:	48 01 d0             	add    %rdx,%rax
    5c58:	c9                   	leaveq 
    5c59:	c3                   	retq   

0000000000005c5a <_ZSt7forwardISt6vectorIjSaIjEEEOT_RNSt16remove_referenceIS3_E4typeE>:
    5c5a:	f3 0f 1e fa          	endbr64 
    5c5e:	55                   	push   %rbp
    5c5f:	48 89 e5             	mov    %rsp,%rbp
    5c62:	48 89 7d f8          	mov    %rdi,-0x8(%rbp)
    5c66:	48 8b 45 f8          	mov    -0x8(%rbp),%rax
    5c6a:	5d                   	pop    %rbp
    5c6b:	c3                   	retq   

0000000000005c6c <_ZNSt12_Vector_baseIjSaIjEEC1EOS1_>:
    5c6c:	f3 0f 1e fa          	endbr64 
    5c70:	55                   	push   %rbp
    5c71:	48 89 e5             	mov    %rsp,%rbp
    5c74:	48 83 ec 10          	sub    $0x10,%rsp
    5c78:	48 89 7d f8          	mov    %rdi,-0x8(%rbp)
    5c7c:	48 89 75 f0          	mov    %rsi,-0x10(%rbp)
    5c80:	48 8b 45 f8          	mov    -0x8(%rbp),%rax
    5c84:	48 8b 55 f0          	mov    -0x10(%rbp),%rdx
    5c88:	48 89 d6             	mov    %rdx,%rsi
    5c8b:	48 89 c7             	mov    %rax,%rdi
    5c8e:	e8 79 00 00 00       	callq  5d0c <_ZNSt12_Vector_baseIjSaIjEE12_Vector_implC1EOS2_>
    5c93:	90                   	nop
    5c94:	c9                   	leaveq 
    5c95:	c3                   	retq   

0000000000005c96 <_ZNSt6vectorIjSaIjEEC1EOS1_>:
    5c96:	f3 0f 1e fa          	endbr64 
    5c9a:	55                   	push   %rbp
    5c9b:	48 89 e5             	mov    %rsp,%rbp
    5c9e:	48 83 ec 10          	sub    $0x10,%rsp
    5ca2:	48 89 7d f8          	mov    %rdi,-0x8(%rbp)
    5ca6:	48 89 75 f0          	mov    %rsi,-0x10(%rbp)
    5caa:	48 8b 45 f8          	mov    -0x8(%rbp),%rax
    5cae:	48 8b 55 f0          	mov    -0x10(%rbp),%rdx
    5cb2:	48 89 d6             	mov    %rdx,%rsi
    5cb5:	48 89 c7             	mov    %rax,%rdi
    5cb8:	e8 af ff ff ff       	callq  5c6c <_ZNSt12_Vector_baseIjSaIjEEC1EOS1_>
    5cbd:	90                   	nop
    5cbe:	c9                   	leaveq 
    5cbf:	c3                   	retq   

0000000000005cc0 <_ZN9__gnu_cxx13new_allocatorISt6vectorIjSaIjEEE9constructIS3_JS3_EEEvPT_DpOT0_>:
    5cc0:	f3 0f 1e fa          	endbr64 
    5cc4:	55                   	push   %rbp
    5cc5:	48 89 e5             	mov    %rsp,%rbp
    5cc8:	53                   	push   %rbx
    5cc9:	48 83 ec 28          	sub    $0x28,%rsp
    5ccd:	48 89 7d e8          	mov    %rdi,-0x18(%rbp)
    5cd1:	48 89 75 e0          	mov    %rsi,-0x20(%rbp)
    5cd5:	48 89 55 d8          	mov    %rdx,-0x28(%rbp)
    5cd9:	48 8b 45 d8          	mov    -0x28(%rbp),%rax
    5cdd:	48 89 c7             	mov    %rax,%rdi
    5ce0:	e8 75 ff ff ff       	callq  5c5a <_ZSt7forwardISt6vectorIjSaIjEEEOT_RNSt16remove_referenceIS3_E4typeE>
    5ce5:	48 89 c3             	mov    %rax,%rbx
    5ce8:	48 8b 45 e0          	mov    -0x20(%rbp),%rax
    5cec:	48 89 c6             	mov    %rax,%rsi
    5cef:	bf 18 00 00 00       	mov    $0x18,%edi
    5cf4:	e8 ad d0 ff ff       	callq  2da6 <_ZnwmPv>
    5cf9:	48 89 de             	mov    %rbx,%rsi
    5cfc:	48 89 c7             	mov    %rax,%rdi
    5cff:	e8 92 ff ff ff       	callq  5c96 <_ZNSt6vectorIjSaIjEEC1EOS1_>
    5d04:	90                   	nop
    5d05:	48 8b 5d f8          	mov    -0x8(%rbp),%rbx
    5d09:	c9                   	leaveq 
    5d0a:	c3                   	retq   
    5d0b:	90                   	nop

0000000000005d0c <_ZNSt12_Vector_baseIjSaIjEE12_Vector_implC1EOS2_>:
    5d0c:	f3 0f 1e fa          	endbr64 
    5d10:	55                   	push   %rbp
    5d11:	48 89 e5             	mov    %rsp,%rbp
    5d14:	53                   	push   %rbx
    5d15:	48 83 ec 18          	sub    $0x18,%rsp
    5d19:	48 89 7d e8          	mov    %rdi,-0x18(%rbp)
    5d1d:	48 89 75 e0          	mov    %rsi,-0x20(%rbp)
    5d21:	48 8b 45 e0          	mov    -0x20(%rbp),%rax
    5d25:	48 89 c7             	mov    %rax,%rdi
    5d28:	e8 34 00 00 00       	callq  5d61 <_ZSt4moveIRNSt12_Vector_baseIjSaIjEE12_Vector_implEEONSt16remove_referenceIT_E4typeEOS6_>
    5d2d:	48 89 c2             	mov    %rax,%rdx
    5d30:	48 8b 45 e8          	mov    -0x18(%rbp),%rax
    5d34:	48 89 d6             	mov    %rdx,%rsi
    5d37:	48 89 c7             	mov    %rax,%rdi
    5d3a:	e8 47 f2 ff ff       	callq  4f86 <_ZNSaIjEC1ERKS_>
    5d3f:	48 8b 5d e8          	mov    -0x18(%rbp),%rbx
    5d43:	48 8b 45 e0          	mov    -0x20(%rbp),%rax
    5d47:	48 89 c7             	mov    %rax,%rdi
    5d4a:	e8 12 00 00 00       	callq  5d61 <_ZSt4moveIRNSt12_Vector_baseIjSaIjEE12_Vector_implEEONSt16remove_referenceIT_E4typeEOS6_>
    5d4f:	48 89 c6             	mov    %rax,%rsi
    5d52:	48 89 df             	mov    %rbx,%rdi
    5d55:	e8 1a 00 00 00       	callq  5d74 <_ZNSt12_Vector_baseIjSaIjEE17_Vector_impl_dataC1EOS2_>
    5d5a:	90                   	nop
    5d5b:	48 8b 5d f8          	mov    -0x8(%rbp),%rbx
    5d5f:	c9                   	leaveq 
    5d60:	c3                   	retq   

0000000000005d61 <_ZSt4moveIRNSt12_Vector_baseIjSaIjEE12_Vector_implEEONSt16remove_referenceIT_E4typeEOS6_>:
    5d61:	f3 0f 1e fa          	endbr64 
    5d65:	55                   	push   %rbp
    5d66:	48 89 e5             	mov    %rsp,%rbp
    5d69:	48 89 7d f8          	mov    %rdi,-0x8(%rbp)
    5d6d:	48 8b 45 f8          	mov    -0x8(%rbp),%rax
    5d71:	5d                   	pop    %rbp
    5d72:	c3                   	retq   
    5d73:	90                   	nop

0000000000005d74 <_ZNSt12_Vector_baseIjSaIjEE17_Vector_impl_dataC1EOS2_>:
    5d74:	f3 0f 1e fa          	endbr64 
    5d78:	55                   	push   %rbp
    5d79:	48 89 e5             	mov    %rsp,%rbp
    5d7c:	48 89 7d f8          	mov    %rdi,-0x8(%rbp)
    5d80:	48 89 75 f0          	mov    %rsi,-0x10(%rbp)
    5d84:	48 8b 45 f0          	mov    -0x10(%rbp),%rax
    5d88:	48 8b 10             	mov    (%rax),%rdx
    5d8b:	48 8b 45 f8          	mov    -0x8(%rbp),%rax
    5d8f:	48 89 10             	mov    %rdx,(%rax)
    5d92:	48 8b 45 f0          	mov    -0x10(%rbp),%rax
    5d96:	48 8b 50 08          	mov    0x8(%rax),%rdx
    5d9a:	48 8b 45 f8          	mov    -0x8(%rbp),%rax
    5d9e:	48 89 50 08          	mov    %rdx,0x8(%rax)
    5da2:	48 8b 45 f0          	mov    -0x10(%rbp),%rax
    5da6:	48 8b 50 10          	mov    0x10(%rax),%rdx
    5daa:	48 8b 45 f8          	mov    -0x8(%rbp),%rax
    5dae:	48 89 50 10          	mov    %rdx,0x10(%rax)
    5db2:	48 8b 45 f0          	mov    -0x10(%rbp),%rax
    5db6:	48 c7 40 10 00 00 00 	movq   $0x0,0x10(%rax)
    5dbd:	00 
    5dbe:	48 8b 45 f0          	mov    -0x10(%rbp),%rax
    5dc2:	48 8b 50 10          	mov    0x10(%rax),%rdx
    5dc6:	48 8b 45 f0          	mov    -0x10(%rbp),%rax
    5dca:	48 89 50 08          	mov    %rdx,0x8(%rax)
    5dce:	48 8b 45 f0          	mov    -0x10(%rbp),%rax
    5dd2:	48 8b 50 08          	mov    0x8(%rax),%rdx
    5dd6:	48 8b 45 f0          	mov    -0x10(%rbp),%rax
    5dda:	48 89 10             	mov    %rdx,(%rax)
    5ddd:	90                   	nop
    5dde:	5d                   	pop    %rbp
    5ddf:	c3                   	retq   

0000000000005de0 <__libc_csu_init>:
    5de0:	f3 0f 1e fa          	endbr64 
    5de4:	41 57                	push   %r15
    5de6:	4c 8d 3d 3b 3e 00 00 	lea    0x3e3b(%rip),%r15        # 9c28 <__frame_dummy_init_array_entry>
    5ded:	41 56                	push   %r14
    5def:	49 89 d6             	mov    %rdx,%r14
    5df2:	41 55                	push   %r13
    5df4:	49 89 f5             	mov    %rsi,%r13
    5df7:	41 54                	push   %r12
    5df9:	41 89 fc             	mov    %edi,%r12d
    5dfc:	55                   	push   %rbp
    5dfd:	48 8d 2d 34 3e 00 00 	lea    0x3e34(%rip),%rbp        # 9c38 <__do_global_dtors_aux_fini_array_entry>
    5e04:	53                   	push   %rbx
    5e05:	4c 29 fd             	sub    %r15,%rbp
    5e08:	48 83 ec 08          	sub    $0x8,%rsp
    5e0c:	e8 ef c1 ff ff       	callq  2000 <_init>
    5e11:	48 c1 fd 03          	sar    $0x3,%rbp
    5e15:	74 1f                	je     5e36 <__libc_csu_init+0x56>
    5e17:	31 db                	xor    %ebx,%ebx
    5e19:	0f 1f 80 00 00 00 00 	nopl   0x0(%rax)
    5e20:	4c 89 f2             	mov    %r14,%rdx
    5e23:	4c 89 ee             	mov    %r13,%rsi
    5e26:	44 89 e7             	mov    %r12d,%edi
    5e29:	41 ff 14 df          	callq  *(%r15,%rbx,8)
    5e2d:	48 83 c3 01          	add    $0x1,%rbx
    5e31:	48 39 dd             	cmp    %rbx,%rbp
    5e34:	75 ea                	jne    5e20 <__libc_csu_init+0x40>
    5e36:	48 83 c4 08          	add    $0x8,%rsp
    5e3a:	5b                   	pop    %rbx
    5e3b:	5d                   	pop    %rbp
    5e3c:	41 5c                	pop    %r12
    5e3e:	41 5d                	pop    %r13
    5e40:	41 5e                	pop    %r14
    5e42:	41 5f                	pop    %r15
    5e44:	c3                   	retq   
    5e45:	66 66 2e 0f 1f 84 00 	data16 nopw %cs:0x0(%rax,%rax,1)
    5e4c:	00 00 00 00 

0000000000005e50 <__libc_csu_fini>:
    5e50:	f3 0f 1e fa          	endbr64 
    5e54:	c3                   	retq   

Disassembly of section .fini:

0000000000005e58 <_fini>:
    5e58:	f3 0f 1e fa          	endbr64 
    5e5c:	48 83 ec 08          	sub    $0x8,%rsp
    5e60:	48 83 c4 08          	add    $0x8,%rsp
    5e64:	c3                   	retq   
